   1               		.file	"fat.c"
   2               	__SREG__ = 0x3f
   3               	__SP_H__ = 0x3e
   4               	__SP_L__ = 0x3d
   5               	__CCP__  = 0x34
   6               	__tmp_reg__ = 0
   7               	__zero_reg__ = 1
  15               	.Ltext0:
  16               	.global	fat_close
  18               	fat_close:
  19               	.LFB3:
  20               	.LM1:
  21               	.LVL0:
  22               	/* prologue: function */
  23               	/* frame size = 0 */
  24 0000 FC01      		movw r30,r24
  25               	.LM2:
  26 0002 0097      		sbiw r24,0
  27 0004 01F0      		breq .L3
  28               	.LM3:
  29 0006 1182      		std Z+1,__zero_reg__
  30 0008 1082      		st Z,__zero_reg__
  31               	.LVL1:
  32               	.L3:
  33 000a 0895      		ret
  34               	.LFE3:
  37               	fat_get_next_cluster:
  38               	.LFB5:
  39               	.LM4:
  40               	.LVL2:
  41 000c 7F92      		push r7
  42 000e 8F92      		push r8
  43 0010 9F92      		push r9
  44 0012 AF92      		push r10
  45 0014 BF92      		push r11
  46 0016 CF92      		push r12
  47 0018 DF92      		push r13
  48 001a EF92      		push r14
  49 001c FF92      		push r15
  50 001e 0F93      		push r16
  51 0020 1F93      		push r17
  52 0022 DF93      		push r29
  53 0024 CF93      		push r28
  54 0026 00D0      		rcall .
  55 0028 00D0      		rcall .
  56 002a 00D0      		rcall .
  57 002c CDB7      		in r28,__SP_L__
  58 002e DEB7      		in r29,__SP_H__
  59               	/* prologue: function */
  60               	/* frame size = 6 */
  61 0030 DC01      		movw r26,r24
  62               	.LM5:
  63 0032 0097      		sbiw r24,0
  64 0034 01F4      		brne .+2
  65 0036 00C0      		rjmp .L5
  66 0038 4230      		cpi r20,lo8(2)
  67 003a 5105      		cpc r21,__zero_reg__
  68 003c 6105      		cpc r22,__zero_reg__
  69 003e 7105      		cpc r23,__zero_reg__
  70 0040 00F4      		brsh .+2
  71 0042 00C0      		rjmp .L5
  72               	.LM6:
  73 0044 ED91      		ld r30,X+
  74 0046 FC91      		ld r31,X
  75 0048 1197      		sbiw r26,1
  76 004a 8085      		ldd r24,Z+8
  77               	.LVL3:
  78 004c 1A96      		adiw r26,10
  79 004e 2C91      		ld r18,X
  80 0050 1A97      		sbiw r26,10
  81 0052 1B96      		adiw r26,11
  82 0054 1C91      		ld r17,X
  83 0056 1B97      		sbiw r26,11
  84 0058 1C96      		adiw r26,12
  85 005a CC90      		ld r12,X
  86 005c 1C97      		sbiw r26,12
  87 005e 1D96      		adiw r26,13
  88 0060 BC90      		ld r11,X
  89 0062 1D97      		sbiw r26,13
  90 0064 1E96      		adiw r26,14
  91 0066 FC90      		ld r15,X
  92 0068 1E97      		sbiw r26,14
  93 006a 1F96      		adiw r26,15
  94 006c EC90      		ld r14,X
  95 006e 1F97      		sbiw r26,15
  96 0070 5096      		adiw r26,16
  97 0072 DC90      		ld r13,X
  98 0074 5097      		sbiw r26,16
  99 0076 5196      		adiw r26,17
 100 0078 7C90      		ld r7,X
 101 007a 8B30      		cpi r24,lo8(11)
 102 007c 01F0      		breq .+2
 103 007e 00C0      		rjmp .L6
 104               	.LBB42:
 105               	.LM7:
 106 0080 B2E0      		ldi r27,2
 107 0082 440F      	1:	lsl r20
 108 0084 551F      		rol r21
 109 0086 661F      		rol r22
 110 0088 771F      		rol r23
 111 008a BA95      		dec r27
 112 008c 01F4      		brne 1b
 113               	.LVL4:
 114 008e 80E0      		ldi r24,lo8(0)
 115 0090 90E0      		ldi r25,hi8(0)
 116 0092 A0E0      		ldi r26,hlo8(0)
 117 0094 B0E0      		ldi r27,hhi8(0)
 118 0096 822E      		mov r8,r18
 119 0098 840E      		add r8,r20
 120               	.LVL5:
 121 009a 31E0      		ldi r19,lo8(1)
 122 009c 8416      		cp r8,r20
 123 009e 00F0      		brlo .L7
 124 00a0 30E0      		ldi r19,lo8(0)
 125               	.L7:
 126 00a2 150F      		add r17,r21
 127 00a4 21E0      		ldi r18,lo8(1)
 128 00a6 1517      		cp r17,r21
 129 00a8 00F0      		brlo .L8
 130 00aa 20E0      		ldi r18,lo8(0)
 131               	.L8:
 132 00ac 932E      		mov r9,r19
 133 00ae 910E      		add r9,r17
 134 00b0 01E0      		ldi r16,lo8(1)
 135 00b2 9116      		cp r9,r17
 136 00b4 00F0      		brlo .L9
 137 00b6 00E0      		ldi r16,lo8(0)
 138               	.L9:
 139 00b8 202B      		or r18,r16
 140 00ba 1C2D      		mov r17,r12
 141 00bc 160F      		add r17,r22
 142 00be 31E0      		ldi r19,lo8(1)
 143 00c0 1617      		cp r17,r22
 144 00c2 00F0      		brlo .L10
 145 00c4 30E0      		ldi r19,lo8(0)
 146               	.L10:
 147 00c6 A22E      		mov r10,r18
 148 00c8 A10E      		add r10,r17
 149 00ca 01E0      		ldi r16,lo8(1)
 150 00cc A116      		cp r10,r17
 151 00ce 00F0      		brlo .L11
 152 00d0 00E0      		ldi r16,lo8(0)
 153               	.L11:
 154 00d2 302B      		or r19,r16
 155 00d4 1B2D      		mov r17,r11
 156 00d6 170F      		add r17,r23
 157 00d8 01E0      		ldi r16,lo8(1)
 158 00da 1717      		cp r17,r23
 159 00dc 00F0      		brlo .L12
 160 00de 00E0      		ldi r16,lo8(0)
 161               	.L12:
 162 00e0 B32E      		mov r11,r19
 163 00e2 B10E      		add r11,r17
 164 00e4 21E0      		ldi r18,lo8(1)
 165 00e6 B116      		cp r11,r17
 166 00e8 00F0      		brlo .L13
 167 00ea 20E0      		ldi r18,lo8(0)
 168               	.L13:
 169 00ec 022B      		or r16,r18
 170 00ee 11E0      		ldi r17,lo8(1)
 171 00f0 F816      		cp r15,r24
 172 00f2 00F0      		brlo .L14
 173 00f4 10E0      		ldi r17,lo8(0)
 174               	.L14:
 175 00f6 C02E      		mov r12,r16
 176 00f8 CF0C      		add r12,r15
 177 00fa 01E0      		ldi r16,lo8(1)
 178 00fc CF14      		cp r12,r15
 179 00fe 00F0      		brlo .L15
 180 0100 00E0      		ldi r16,lo8(0)
 181               	.L15:
 182 0102 102B      		or r17,r16
 183 0104 01E0      		ldi r16,lo8(1)
 184 0106 E916      		cp r14,r25
 185 0108 00F0      		brlo .L16
 186 010a 00E0      		ldi r16,lo8(0)
 187               	.L16:
 188 010c F12E      		mov r15,r17
 189 010e FE0C      		add r15,r14
 190 0110 11E0      		ldi r17,lo8(1)
 191 0112 FE14      		cp r15,r14
 192 0114 00F0      		brlo .L17
 193 0116 10E0      		ldi r17,lo8(0)
 194               	.L17:
 195 0118 012B      		or r16,r17
 196 011a 11E0      		ldi r17,lo8(1)
 197 011c DA16      		cp r13,r26
 198               	.LVL6:
 199 011e 00F0      		brlo .L18
 200 0120 10E0      		ldi r17,lo8(0)
 201               	.L18:
 202 0122 802F      		mov r24,r16
 203 0124 8D0D      		add r24,r13
 204 0126 A1E0      		ldi r26,lo8(1)
 205 0128 8D15      		cp r24,r13
 206 012a 00F0      		brlo .L19
 207 012c A0E0      		ldi r26,lo8(0)
 208               	.L19:
 209 012e 1A2B      		or r17,r26
 210 0130 0190      		ld __tmp_reg__,Z+
 211 0132 F081      		ld r31,Z
 212 0134 E02D      		mov r30,__tmp_reg__
 213 0136 9401      		movw r18,r8
 214 0138 A501      		movw r20,r10
 215 013a 6C2D      		mov r22,r12
 216 013c 7F2D      		mov r23,r15
 217 013e 912F      		mov r25,r17
 218 0140 970D      		add r25,r7
 219 0142 8E01      		movw r16,r28
 220 0144 0D5F      		subi r16,lo8(-(3))
 221 0146 1F4F      		sbci r17,hi8(-(3))
 222 0148 A4E0      		ldi r26,lo8(4)
 223 014a EA2E      		mov r14,r26
 224 014c F12C      		mov r15,__zero_reg__
 225 014e 0995      		icall
 226 0150 8823      		tst r24
 227 0152 01F4      		brne .+2
 228 0154 00C0      		rjmp .L5
 229               	.LM8:
 230 0156 2B81      		ldd r18,Y+3
 231 0158 3C81      		ldd r19,Y+4
 232 015a 4D81      		ldd r20,Y+5
 233 015c 5E81      		ldd r21,Y+6
 234               	.LVL7:
 235               	.LM9:
 236 015e 2115      		cp r18,__zero_reg__
 237 0160 3105      		cpc r19,__zero_reg__
 238 0162 4105      		cpc r20,__zero_reg__
 239 0164 5105      		cpc r21,__zero_reg__
 240 0166 01F4      		brne .+2
 241 0168 00C0      		rjmp .L20
 242 016a 273F      		cpi r18,lo8(268435447)
 243 016c 8FEF      		ldi r24,hi8(268435447)
 244 016e 3807      		cpc r19,r24
 245 0170 8FEF      		ldi r24,hlo8(268435447)
 246 0172 4807      		cpc r20,r24
 247 0174 8FE0      		ldi r24,hhi8(268435447)
 248 0176 5807      		cpc r21,r24
 249 0178 01F4      		brne .+2
 250 017a 00C0      		rjmp .L5
 251 017c DA01      		movw r26,r20
 252 017e C901      		movw r24,r18
 253 0180 805F      		subi r24,lo8(-(-268435440))
 254 0182 9F4F      		sbci r25,hi8(-(-268435440))
 255 0184 AF4F      		sbci r26,hlo8(-(-268435440))
 256 0186 BF40      		sbci r27,hhi8(-(-268435440))
 257 0188 0797      		sbiw r24,7
 258 018a A105      		cpc r26,__zero_reg__
 259 018c B105      		cpc r27,__zero_reg__
 260 018e 00F4      		brsh .+2
 261 0190 00C0      		rjmp .L5
 262 0192 DA01      		movw r26,r20
 263 0194 C901      		movw r24,r18
 264 0196 885F      		subi r24,lo8(-(-268435448))
 265 0198 9F4F      		sbci r25,hi8(-(-268435448))
 266 019a AF4F      		sbci r26,hlo8(-(-268435448))
 267 019c BF40      		sbci r27,hhi8(-(-268435448))
 268 019e 00C0      		rjmp .L36
 269               	.LVL8:
 270               	.L6:
 271               	.LBE42:
 272               	.LBB43:
 273               	.LM10:
 274 01a0 440F      		lsl r20
 275 01a2 551F      		rol r21
 276 01a4 661F      		rol r22
 277 01a6 771F      		rol r23
 278               	.LVL9:
 279 01a8 80E0      		ldi r24,lo8(0)
 280 01aa 90E0      		ldi r25,hi8(0)
 281 01ac A0E0      		ldi r26,hlo8(0)
 282 01ae B0E0      		ldi r27,hhi8(0)
 283 01b0 822E      		mov r8,r18
 284 01b2 840E      		add r8,r20
 285               	.LVL10:
 286 01b4 31E0      		ldi r19,lo8(1)
 287 01b6 8416      		cp r8,r20
 288 01b8 00F0      		brlo .L21
 289 01ba 30E0      		ldi r19,lo8(0)
 290               	.L21:
 291 01bc 150F      		add r17,r21
 292 01be 21E0      		ldi r18,lo8(1)
 293 01c0 1517      		cp r17,r21
 294 01c2 00F0      		brlo .L22
 295 01c4 20E0      		ldi r18,lo8(0)
 296               	.L22:
 297 01c6 932E      		mov r9,r19
 298 01c8 910E      		add r9,r17
 299 01ca 01E0      		ldi r16,lo8(1)
 300 01cc 9116      		cp r9,r17
 301 01ce 00F0      		brlo .L23
 302 01d0 00E0      		ldi r16,lo8(0)
 303               	.L23:
 304 01d2 202B      		or r18,r16
 305 01d4 1C2D      		mov r17,r12
 306 01d6 160F      		add r17,r22
 307 01d8 31E0      		ldi r19,lo8(1)
 308 01da 1617      		cp r17,r22
 309 01dc 00F0      		brlo .L24
 310 01de 30E0      		ldi r19,lo8(0)
 311               	.L24:
 312 01e0 A22E      		mov r10,r18
 313 01e2 A10E      		add r10,r17
 314 01e4 01E0      		ldi r16,lo8(1)
 315 01e6 A116      		cp r10,r17
 316 01e8 00F0      		brlo .L25
 317 01ea 00E0      		ldi r16,lo8(0)
 318               	.L25:
 319 01ec 302B      		or r19,r16
 320 01ee 1B2D      		mov r17,r11
 321 01f0 170F      		add r17,r23
 322 01f2 01E0      		ldi r16,lo8(1)
 323 01f4 1717      		cp r17,r23
 324 01f6 00F0      		brlo .L26
 325 01f8 00E0      		ldi r16,lo8(0)
 326               	.L26:
 327 01fa B32E      		mov r11,r19
 328 01fc B10E      		add r11,r17
 329 01fe 21E0      		ldi r18,lo8(1)
 330 0200 B116      		cp r11,r17
 331 0202 00F0      		brlo .L27
 332 0204 20E0      		ldi r18,lo8(0)
 333               	.L27:
 334 0206 022B      		or r16,r18
 335 0208 11E0      		ldi r17,lo8(1)
 336 020a F816      		cp r15,r24
 337 020c 00F0      		brlo .L28
 338 020e 10E0      		ldi r17,lo8(0)
 339               	.L28:
 340 0210 C02E      		mov r12,r16
 341 0212 CF0C      		add r12,r15
 342 0214 01E0      		ldi r16,lo8(1)
 343 0216 CF14      		cp r12,r15
 344 0218 00F0      		brlo .L29
 345 021a 00E0      		ldi r16,lo8(0)
 346               	.L29:
 347 021c 102B      		or r17,r16
 348 021e 01E0      		ldi r16,lo8(1)
 349 0220 E916      		cp r14,r25
 350 0222 00F0      		brlo .L30
 351 0224 00E0      		ldi r16,lo8(0)
 352               	.L30:
 353 0226 F12E      		mov r15,r17
 354 0228 FE0C      		add r15,r14
 355 022a 11E0      		ldi r17,lo8(1)
 356 022c FE14      		cp r15,r14
 357 022e 00F0      		brlo .L31
 358 0230 10E0      		ldi r17,lo8(0)
 359               	.L31:
 360 0232 012B      		or r16,r17
 361 0234 11E0      		ldi r17,lo8(1)
 362 0236 DA16      		cp r13,r26
 363               	.LVL11:
 364 0238 00F0      		brlo .L32
 365 023a 10E0      		ldi r17,lo8(0)
 366               	.L32:
 367 023c 802F      		mov r24,r16
 368 023e 8D0D      		add r24,r13
 369 0240 A1E0      		ldi r26,lo8(1)
 370 0242 8D15      		cp r24,r13
 371 0244 00F0      		brlo .L33
 372 0246 A0E0      		ldi r26,lo8(0)
 373               	.L33:
 374 0248 1A2B      		or r17,r26
 375 024a 0190      		ld __tmp_reg__,Z+
 376 024c F081      		ld r31,Z
 377 024e E02D      		mov r30,__tmp_reg__
 378 0250 9401      		movw r18,r8
 379 0252 A501      		movw r20,r10
 380 0254 6C2D      		mov r22,r12
 381 0256 7F2D      		mov r23,r15
 382 0258 912F      		mov r25,r17
 383 025a 970D      		add r25,r7
 384 025c 8E01      		movw r16,r28
 385 025e 0F5F      		subi r16,lo8(-(1))
 386 0260 1F4F      		sbci r17,hi8(-(1))
 387 0262 A2E0      		ldi r26,lo8(2)
 388 0264 EA2E      		mov r14,r26
 389 0266 F12C      		mov r15,__zero_reg__
 390 0268 0995      		icall
 391 026a 8823      		tst r24
 392 026c 01F0      		breq .L5
 393               	.LM11:
 394 026e 8981      		ldd r24,Y+1
 395 0270 9A81      		ldd r25,Y+2
 396               	.LVL12:
 397 0272 9C01      		movw r18,r24
 398               	.LVL13:
 399 0274 40E0      		ldi r20,lo8(0)
 400 0276 50E0      		ldi r21,hi8(0)
 401               	.LVL14:
 402               	.LM12:
 403 0278 2115      		cp r18,__zero_reg__
 404 027a 3105      		cpc r19,__zero_reg__
 405 027c 4105      		cpc r20,__zero_reg__
 406 027e 5105      		cpc r21,__zero_reg__
 407 0280 01F0      		breq .L20
 408               	.LVL15:
 409 0282 273F      		cpi r18,lo8(65527)
 410 0284 8FEF      		ldi r24,hi8(65527)
 411 0286 3807      		cpc r19,r24
 412 0288 80E0      		ldi r24,hlo8(65527)
 413 028a 4807      		cpc r20,r24
 414 028c 80E0      		ldi r24,hhi8(65527)
 415 028e 5807      		cpc r21,r24
 416               	.LVL16:
 417 0290 01F0      		breq .L5
 418 0292 DA01      		movw r26,r20
 419 0294 C901      		movw r24,r18
 420 0296 805F      		subi r24,lo8(-(-65520))
 421 0298 9F4F      		sbci r25,hi8(-(-65520))
 422 029a A040      		sbci r26,hlo8(-(-65520))
 423 029c B040      		sbci r27,hhi8(-(-65520))
 424 029e 0797      		sbiw r24,7
 425 02a0 A105      		cpc r26,__zero_reg__
 426 02a2 B105      		cpc r27,__zero_reg__
 427 02a4 00F0      		brlo .L5
 428 02a6 DA01      		movw r26,r20
 429 02a8 C901      		movw r24,r18
 430 02aa 885F      		subi r24,lo8(-(-65528))
 431 02ac 9F4F      		sbci r25,hi8(-(-65528))
 432 02ae A040      		sbci r26,hlo8(-(-65528))
 433 02b0 B040      		sbci r27,hhi8(-(-65528))
 434               	.LVL17:
 435               	.L36:
 436 02b2 0897      		sbiw r24,8
 437 02b4 A105      		cpc r26,__zero_reg__
 438 02b6 B105      		cpc r27,__zero_reg__
 439 02b8 00F4      		brsh .L20
 440               	.LVL18:
 441               	.L5:
 442 02ba 20E0      		ldi r18,lo8(0)
 443 02bc 30E0      		ldi r19,hi8(0)
 444 02be 40E0      		ldi r20,hlo8(0)
 445 02c0 50E0      		ldi r21,hhi8(0)
 446               	.LVL19:
 447               	.L20:
 448               	.LBE43:
 449               	.LM13:
 450 02c2 B901      		movw r22,r18
 451               	.LVL20:
 452 02c4 CA01      		movw r24,r20
 453               	.LVL21:
 454               	/* epilogue start */
 455 02c6 2696      		adiw r28,6
 456 02c8 0FB6      		in __tmp_reg__,__SREG__
 457 02ca F894      		cli
 458 02cc DEBF      		out __SP_H__,r29
 459 02ce 0FBE      		out __SREG__,__tmp_reg__
 460 02d0 CDBF      		out __SP_L__,r28
 461 02d2 CF91      		pop r28
 462 02d4 DF91      		pop r29
 463 02d6 1F91      		pop r17
 464 02d8 0F91      		pop r16
 465 02da FF90      		pop r15
 466 02dc EF90      		pop r14
 467 02de DF90      		pop r13
 468 02e0 CF90      		pop r12
 469 02e2 BF90      		pop r11
 470 02e4 AF90      		pop r10
 471 02e6 9F90      		pop r9
 472 02e8 8F90      		pop r8
 473 02ea 7F90      		pop r7
 474 02ec 0895      		ret
 475               	.LFE5:
 478               	fat_free_clusters:
 479               	.LFB7:
 480               	.LM14:
 481               	.LVL22:
 482 02ee 2F92      		push r2
 483 02f0 3F92      		push r3
 484 02f2 4F92      		push r4
 485 02f4 5F92      		push r5
 486 02f6 6F92      		push r6
 487 02f8 7F92      		push r7
 488 02fa 8F92      		push r8
 489 02fc 9F92      		push r9
 490 02fe AF92      		push r10
 491 0300 BF92      		push r11
 492 0302 CF92      		push r12
 493 0304 DF92      		push r13
 494 0306 EF92      		push r14
 495 0308 FF92      		push r15
 496 030a 0F93      		push r16
 497 030c 1F93      		push r17
 498 030e DF93      		push r29
 499 0310 CF93      		push r28
 500 0312 CDB7      		in r28,__SP_L__
 501 0314 DEB7      		in r29,__SP_H__
 502 0316 6097      		sbiw r28,16
 503 0318 0FB6      		in __tmp_reg__,__SREG__
 504 031a F894      		cli
 505 031c DEBF      		out __SP_H__,r29
 506 031e 0FBE      		out __SREG__,__tmp_reg__
 507 0320 CDBF      		out __SP_L__,r28
 508               	/* prologue: function */
 509               	/* frame size = 16 */
 510 0322 4C01      		movw r8,r24
 511               	.LM15:
 512 0324 0097      		sbiw r24,0
 513 0326 01F4      		brne .+2
 514 0328 00C0      		rjmp .L38
 515 032a 4230      		cpi r20,lo8(2)
 516 032c 5105      		cpc r21,__zero_reg__
 517 032e 6105      		cpc r22,__zero_reg__
 518 0330 7105      		cpc r23,__zero_reg__
 519 0332 00F4      		brsh .+2
 520 0334 00C0      		rjmp .L38
 521               	.LM16:
 522 0336 DC01      		movw r26,r24
 523 0338 1A96      		adiw r26,10
 524 033a BC91      		ld r27,X
 525 033c B887      		std Y+8,r27
 526 033e FC01      		movw r30,r24
 527 0340 F385      		ldd r31,Z+11
 528 0342 F987      		std Y+9,r31
 529 0344 DC01      		movw r26,r24
 530 0346 1C96      		adiw r26,12
 531 0348 BC91      		ld r27,X
 532 034a BA87      		std Y+10,r27
 533 034c FC01      		movw r30,r24
 534 034e F585      		ldd r31,Z+13
 535 0350 FB87      		std Y+11,r31
 536 0352 DC01      		movw r26,r24
 537 0354 1E96      		adiw r26,14
 538 0356 BC91      		ld r27,X
 539 0358 BC87      		std Y+12,r27
 540 035a FC01      		movw r30,r24
 541 035c F785      		ldd r31,Z+15
 542 035e FD87      		std Y+13,r31
 543 0360 DC01      		movw r26,r24
 544 0362 5096      		adiw r26,16
 545 0364 BC91      		ld r27,X
 546 0366 BE87      		std Y+14,r27
 547 0368 FC01      		movw r30,r24
 548 036a F189      		ldd r31,Z+17
 549 036c FF87      		std Y+15,r31
 550               	.LM17:
 551 036e DC01      		movw r26,r24
 552 0370 ED91      		ld r30,X+
 553 0372 FC91      		ld r31,X
 554 0374 8085      		ldd r24,Z+8
 555               	.LVL23:
 556 0376 8B30      		cpi r24,lo8(11)
 557 0378 01F0      		breq .+2
 558 037a 00C0      		rjmp .L73
 559               	.LVL24:
 560               	.L72:
 561               	.LBB44:
 562               	.LBB45:
 563               	.LM18:
 564 037c 12E0      		ldi r17,2
 565 037e 440F      	1:	lsl r20
 566 0380 551F      		rol r21
 567 0382 661F      		rol r22
 568 0384 771F      		rol r23
 569 0386 1A95      		dec r17
 570 0388 01F4      		brne 1b
 571               	.LVL25:
 572 038a 80E0      		ldi r24,lo8(0)
 573 038c 90E0      		ldi r25,hi8(0)
 574 038e A0E0      		ldi r26,hlo8(0)
 575 0390 B0E0      		ldi r27,hhi8(0)
 576 0392 E885      		ldd r30,Y+8
 577 0394 E40F      		add r30,r20
 578               	.LVL26:
 579 0396 E88B      		std Y+16,r30
 580 0398 31E0      		ldi r19,lo8(1)
 581 039a E417      		cp r30,r20
 582 039c 00F0      		brlo .L40
 583 039e 30E0      		ldi r19,lo8(0)
 584               	.L40:
 585 03a0 2985      		ldd r18,Y+9
 586 03a2 250F      		add r18,r21
 587 03a4 E1E0      		ldi r30,lo8(1)
 588 03a6 2517      		cp r18,r21
 589 03a8 00F0      		brlo .L41
 590 03aa E0E0      		ldi r30,lo8(0)
 591               	.L41:
 592 03ac 320F      		add r19,r18
 593 03ae 3F83      		std Y+7,r19
 594 03b0 31E0      		ldi r19,lo8(1)
 595 03b2 FF81      		ldd r31,Y+7
 596 03b4 F217      		cp r31,r18
 597 03b6 00F0      		brlo .L42
 598 03b8 30E0      		ldi r19,lo8(0)
 599               	.L42:
 600 03ba E32B      		or r30,r19
 601 03bc 2A85      		ldd r18,Y+10
 602 03be 260F      		add r18,r22
 603 03c0 F1E0      		ldi r31,lo8(1)
 604 03c2 2617      		cp r18,r22
 605 03c4 00F0      		brlo .L43
 606 03c6 F0E0      		ldi r31,lo8(0)
 607               	.L43:
 608 03c8 2E2E      		mov r2,r30
 609 03ca 220E      		add r2,r18
 610 03cc 31E0      		ldi r19,lo8(1)
 611 03ce 2216      		cp r2,r18
 612 03d0 00F0      		brlo .L44
 613 03d2 30E0      		ldi r19,lo8(0)
 614               	.L44:
 615 03d4 F32B      		or r31,r19
 616 03d6 2B85      		ldd r18,Y+11
 617 03d8 270F      		add r18,r23
 618 03da 31E0      		ldi r19,lo8(1)
 619 03dc 2717      		cp r18,r23
 620 03de 00F0      		brlo .L45
 621 03e0 30E0      		ldi r19,lo8(0)
 622               	.L45:
 623 03e2 3F2E      		mov r3,r31
 624 03e4 320E      		add r3,r18
 625 03e6 E1E0      		ldi r30,lo8(1)
 626 03e8 3216      		cp r3,r18
 627 03ea 00F0      		brlo .L46
 628 03ec E0E0      		ldi r30,lo8(0)
 629               	.L46:
 630 03ee 3E2B      		or r19,r30
 631 03f0 21E0      		ldi r18,lo8(1)
 632 03f2 EC85      		ldd r30,Y+12
 633 03f4 E817      		cp r30,r24
 634 03f6 00F0      		brlo .L47
 635 03f8 20E0      		ldi r18,lo8(0)
 636               	.L47:
 637 03fa 4C84      		ldd r4,Y+12
 638 03fc 430E      		add r4,r19
 639 03fe 31E0      		ldi r19,lo8(1)
 640 0400 FC85      		ldd r31,Y+12
 641 0402 4F16      		cp r4,r31
 642 0404 00F0      		brlo .L48
 643 0406 30E0      		ldi r19,lo8(0)
 644               	.L48:
 645 0408 232B      		or r18,r19
 646 040a 31E0      		ldi r19,lo8(1)
 647 040c ED85      		ldd r30,Y+13
 648 040e E917      		cp r30,r25
 649 0410 00F0      		brlo .L49
 650 0412 30E0      		ldi r19,lo8(0)
 651               	.L49:
 652 0414 5D84      		ldd r5,Y+13
 653 0416 520E      		add r5,r18
 654 0418 21E0      		ldi r18,lo8(1)
 655 041a FD85      		ldd r31,Y+13
 656 041c 5F16      		cp r5,r31
 657 041e 00F0      		brlo .L50
 658 0420 20E0      		ldi r18,lo8(0)
 659               	.L50:
 660 0422 322B      		or r19,r18
 661 0424 21E0      		ldi r18,lo8(1)
 662 0426 EE85      		ldd r30,Y+14
 663 0428 EA17      		cp r30,r26
 664 042a 00F0      		brlo .L51
 665 042c 20E0      		ldi r18,lo8(0)
 666               	.L51:
 667 042e 6E84      		ldd r6,Y+14
 668 0430 630E      		add r6,r19
 669 0432 91E0      		ldi r25,lo8(1)
 670 0434 FE85      		ldd r31,Y+14
 671 0436 6F16      		cp r6,r31
 672 0438 00F0      		brlo .L52
 673 043a 90E0      		ldi r25,lo8(0)
 674               	.L52:
 675 043c 722E      		mov r7,r18
 676 043e 792A      		or r7,r25
 677 0440 2F85      		ldd r18,Y+15
 678 0442 720E      		add r7,r18
 679 0444 D401      		movw r26,r8
 680 0446 ED91      		ld r30,X+
 681 0448 FC91      		ld r31,X
 682 044a 0190      		ld __tmp_reg__,Z+
 683 044c F081      		ld r31,Z
 684 044e E02D      		mov r30,__tmp_reg__
 685 0450 2889      		ldd r18,Y+16
 686 0452 3F81      		ldd r19,Y+7
 687 0454 A101      		movw r20,r2
 688 0456 B201      		movw r22,r4
 689 0458 C301      		movw r24,r6
 690 045a 8E01      		movw r16,r28
 691 045c 0D5F      		subi r16,lo8(-(3))
 692 045e 1F4F      		sbci r17,hi8(-(3))
 693 0460 B4E0      		ldi r27,lo8(4)
 694 0462 EB2E      		mov r14,r27
 695 0464 F12C      		mov r15,__zero_reg__
 696 0466 0995      		icall
 697 0468 8823      		tst r24
 698 046a 01F4      		brne .+2
 699 046c 00C0      		rjmp .L38
 700               	.LM19:
 701 046e AB80      		ldd r10,Y+3
 702 0470 BC80      		ldd r11,Y+4
 703 0472 CD80      		ldd r12,Y+5
 704 0474 DE80      		ldd r13,Y+6
 705               	.LM20:
 706 0476 A114      		cp r10,__zero_reg__
 707 0478 B104      		cpc r11,__zero_reg__
 708 047a C104      		cpc r12,__zero_reg__
 709 047c D104      		cpc r13,__zero_reg__
 710 047e 01F4      		brne .+2
 711 0480 00C0      		rjmp .L53
 712               	.LM21:
 713 0482 D601      		movw r26,r12
 714 0484 C501      		movw r24,r10
 715 0486 805F      		subi r24,lo8(-(-268435440))
 716 0488 9F4F      		sbci r25,hi8(-(-268435440))
 717 048a AF4F      		sbci r26,hlo8(-(-268435440))
 718 048c BF40      		sbci r27,hhi8(-(-268435440))
 719 048e 0897      		sbiw r24,8
 720 0490 A105      		cpc r26,__zero_reg__
 721 0492 B105      		cpc r27,__zero_reg__
 722 0494 00F4      		brsh .+2
 723 0496 00C0      		rjmp .L38
 724               	.LM22:
 725 0498 D601      		movw r26,r12
 726 049a C501      		movw r24,r10
 727 049c 885F      		subi r24,lo8(-(-268435448))
 728 049e 9F4F      		sbci r25,hi8(-(-268435448))
 729 04a0 AF4F      		sbci r26,hlo8(-(-268435448))
 730 04a2 BF40      		sbci r27,hhi8(-(-268435448))
 731 04a4 0897      		sbiw r24,8
 732 04a6 A105      		cpc r26,__zero_reg__
 733 04a8 B105      		cpc r27,__zero_reg__
 734 04aa 00F4      		brsh .L54
 735 04ac AA24      		clr r10
 736 04ae BB24      		clr r11
 737 04b0 6501      		movw r12,r10
 738               	.L54:
 739               	.LM23:
 740 04b2 1B82      		std Y+3,__zero_reg__
 741 04b4 1C82      		std Y+4,__zero_reg__
 742 04b6 1D82      		std Y+5,__zero_reg__
 743 04b8 1E82      		std Y+6,__zero_reg__
 744               	.LVL27:
 745               	.LM24:
 746 04ba D401      		movw r26,r8
 747 04bc ED91      		ld r30,X+
 748 04be FC91      		ld r31,X
 749 04c0 0480      		ldd __tmp_reg__,Z+4
 750 04c2 F581      		ldd r31,Z+5
 751 04c4 E02D      		mov r30,__tmp_reg__
 752 04c6 2889      		ldd r18,Y+16
 753 04c8 3F81      		ldd r19,Y+7
 754 04ca A101      		movw r20,r2
 755 04cc B201      		movw r22,r4
 756 04ce C301      		movw r24,r6
 757 04d0 8E01      		movw r16,r28
 758 04d2 0D5F      		subi r16,lo8(-(3))
 759 04d4 1F4F      		sbci r17,hi8(-(3))
 760 04d6 A4E0      		ldi r26,lo8(4)
 761 04d8 EA2E      		mov r14,r26
 762 04da F12C      		mov r15,__zero_reg__
 763 04dc 0995      		icall
 764 04de B601      		movw r22,r12
 765 04e0 A501      		movw r20,r10
 766               	.LVL28:
 767               	.LBE45:
 768               	.LM25:
 769 04e2 A114      		cp r10,__zero_reg__
 770 04e4 B104      		cpc r11,__zero_reg__
 771 04e6 C104      		cpc r12,__zero_reg__
 772 04e8 D104      		cpc r13,__zero_reg__
 773 04ea 01F0      		breq .+2
 774 04ec 00C0      		rjmp .L72
 775               	.LVL29:
 776 04ee 00C0      		rjmp .L53
 777               	.LVL30:
 778               	.L73:
 779               	.LBE44:
 780               	.LBB46:
 781               	.LBB47:
 782               	.LM26:
 783 04f0 440F      		lsl r20
 784 04f2 551F      		rol r21
 785 04f4 661F      		rol r22
 786 04f6 771F      		rol r23
 787               	.LVL31:
 788 04f8 80E0      		ldi r24,lo8(0)
 789 04fa 90E0      		ldi r25,hi8(0)
 790 04fc A0E0      		ldi r26,hlo8(0)
 791 04fe B0E0      		ldi r27,hhi8(0)
 792 0500 2884      		ldd r2,Y+8
 793 0502 240E      		add r2,r20
 794               	.LVL32:
 795 0504 31E0      		ldi r19,lo8(1)
 796 0506 2416      		cp r2,r20
 797 0508 00F0      		brlo .L56
 798 050a 30E0      		ldi r19,lo8(0)
 799               	.L56:
 800 050c 2985      		ldd r18,Y+9
 801 050e 250F      		add r18,r21
 802 0510 E1E0      		ldi r30,lo8(1)
 803 0512 2517      		cp r18,r21
 804 0514 00F0      		brlo .L57
 805 0516 E0E0      		ldi r30,lo8(0)
 806               	.L57:
 807 0518 332E      		mov r3,r19
 808 051a 320E      		add r3,r18
 809 051c 31E0      		ldi r19,lo8(1)
 810 051e 3216      		cp r3,r18
 811 0520 00F0      		brlo .L58
 812 0522 30E0      		ldi r19,lo8(0)
 813               	.L58:
 814 0524 E32B      		or r30,r19
 815 0526 2A85      		ldd r18,Y+10
 816 0528 260F      		add r18,r22
 817               	.LVL33:
 818 052a F1E0      		ldi r31,lo8(1)
 819 052c 2617      		cp r18,r22
 820 052e 00F0      		brlo .L59
 821 0530 F0E0      		ldi r31,lo8(0)
 822               	.L59:
 823 0532 4E2E      		mov r4,r30
 824 0534 420E      		add r4,r18
 825 0536 31E0      		ldi r19,lo8(1)
 826 0538 4216      		cp r4,r18
 827 053a 00F0      		brlo .L60
 828 053c 30E0      		ldi r19,lo8(0)
 829               	.L60:
 830 053e F32B      		or r31,r19
 831 0540 2B85      		ldd r18,Y+11
 832 0542 270F      		add r18,r23
 833 0544 31E0      		ldi r19,lo8(1)
 834 0546 2717      		cp r18,r23
 835 0548 00F0      		brlo .L61
 836 054a 30E0      		ldi r19,lo8(0)
 837               	.L61:
 838 054c 5F2E      		mov r5,r31
 839 054e 520E      		add r5,r18
 840 0550 E1E0      		ldi r30,lo8(1)
 841 0552 5216      		cp r5,r18
 842 0554 00F0      		brlo .L62
 843 0556 E0E0      		ldi r30,lo8(0)
 844               	.L62:
 845 0558 3E2B      		or r19,r30
 846 055a 21E0      		ldi r18,lo8(1)
 847 055c EC85      		ldd r30,Y+12
 848 055e E817      		cp r30,r24
 849 0560 00F0      		brlo .L63
 850 0562 20E0      		ldi r18,lo8(0)
 851               	.L63:
 852 0564 6C84      		ldd r6,Y+12
 853 0566 630E      		add r6,r19
 854 0568 31E0      		ldi r19,lo8(1)
 855 056a FC85      		ldd r31,Y+12
 856 056c 6F16      		cp r6,r31
 857 056e 00F0      		brlo .L64
 858 0570 30E0      		ldi r19,lo8(0)
 859               	.L64:
 860 0572 232B      		or r18,r19
 861 0574 31E0      		ldi r19,lo8(1)
 862 0576 ED85      		ldd r30,Y+13
 863 0578 E917      		cp r30,r25
 864 057a 00F0      		brlo .L65
 865 057c 30E0      		ldi r19,lo8(0)
 866               	.L65:
 867 057e 7D84      		ldd r7,Y+13
 868 0580 720E      		add r7,r18
 869 0582 21E0      		ldi r18,lo8(1)
 870 0584 FD85      		ldd r31,Y+13
 871 0586 7F16      		cp r7,r31
 872 0588 00F0      		brlo .L66
 873 058a 20E0      		ldi r18,lo8(0)
 874               	.L66:
 875 058c 322B      		or r19,r18
 876 058e 21E0      		ldi r18,lo8(1)
 877 0590 EE85      		ldd r30,Y+14
 878 0592 EA17      		cp r30,r26
 879 0594 00F0      		brlo .L67
 880 0596 20E0      		ldi r18,lo8(0)
 881               	.L67:
 882 0598 AE84      		ldd r10,Y+14
 883 059a A30E      		add r10,r19
 884 059c 91E0      		ldi r25,lo8(1)
 885 059e FE85      		ldd r31,Y+14
 886 05a0 AF16      		cp r10,r31
 887 05a2 00F0      		brlo .L68
 888 05a4 90E0      		ldi r25,lo8(0)
 889               	.L68:
 890 05a6 B22E      		mov r11,r18
 891 05a8 B92A      		or r11,r25
 892 05aa 2F85      		ldd r18,Y+15
 893 05ac B20E      		add r11,r18
 894 05ae D401      		movw r26,r8
 895 05b0 ED91      		ld r30,X+
 896 05b2 FC91      		ld r31,X
 897 05b4 0190      		ld __tmp_reg__,Z+
 898 05b6 F081      		ld r31,Z
 899 05b8 E02D      		mov r30,__tmp_reg__
 900 05ba 9101      		movw r18,r2
 901 05bc A201      		movw r20,r4
 902 05be B301      		movw r22,r6
 903 05c0 C501      		movw r24,r10
 904 05c2 8E01      		movw r16,r28
 905 05c4 0F5F      		subi r16,lo8(-(1))
 906 05c6 1F4F      		sbci r17,hi8(-(1))
 907 05c8 B2E0      		ldi r27,lo8(2)
 908 05ca EB2E      		mov r14,r27
 909 05cc F12C      		mov r15,__zero_reg__
 910 05ce 0995      		icall
 911 05d0 8823      		tst r24
 912 05d2 01F0      		breq .L38
 913               	.LM27:
 914 05d4 C980      		ldd r12,Y+1
 915 05d6 DA80      		ldd r13,Y+2
 916               	.LM28:
 917 05d8 C114      		cp r12,__zero_reg__
 918 05da D104      		cpc r13,__zero_reg__
 919 05dc 01F0      		breq .L53
 920               	.LM29:
 921 05de C601      		movw r24,r12
 922 05e0 4096      		adiw r24,16
 923 05e2 0897      		sbiw r24,8
 924 05e4 00F0      		brlo .L38
 925               	.LM30:
 926 05e6 B8EF      		ldi r27,lo8(-8)
 927 05e8 CB16      		cp r12,r27
 928 05ea BFEF      		ldi r27,hi8(-8)
 929 05ec DB06      		cpc r13,r27
 930 05ee 00F0      		brlo .L69
 931 05f0 CC24      		clr r12
 932 05f2 DD24      		clr r13
 933               	.L69:
 934               	.LM31:
 935 05f4 1A82      		std Y+2,__zero_reg__
 936 05f6 1982      		std Y+1,__zero_reg__
 937               	.LVL34:
 938               	.LM32:
 939 05f8 D401      		movw r26,r8
 940 05fa ED91      		ld r30,X+
 941 05fc FC91      		ld r31,X
 942 05fe 0480      		ldd __tmp_reg__,Z+4
 943 0600 F581      		ldd r31,Z+5
 944 0602 E02D      		mov r30,__tmp_reg__
 945 0604 9101      		movw r18,r2
 946 0606 A201      		movw r20,r4
 947 0608 B301      		movw r22,r6
 948 060a C501      		movw r24,r10
 949 060c 8E01      		movw r16,r28
 950 060e 0F5F      		subi r16,lo8(-(1))
 951 0610 1F4F      		sbci r17,hi8(-(1))
 952 0612 A2E0      		ldi r26,lo8(2)
 953 0614 EA2E      		mov r14,r26
 954 0616 F12C      		mov r15,__zero_reg__
 955 0618 0995      		icall
 956               	.LM33:
 957 061a A601      		movw r20,r12
 958               	.LVL35:
 959 061c 60E0      		ldi r22,lo8(0)
 960 061e 70E0      		ldi r23,hi8(0)
 961               	.LVL36:
 962               	.LBE47:
 963               	.LM34:
 964 0620 4115      		cp r20,__zero_reg__
 965 0622 5105      		cpc r21,__zero_reg__
 966 0624 6105      		cpc r22,__zero_reg__
 967 0626 7105      		cpc r23,__zero_reg__
 968 0628 01F0      		breq .+2
 969 062a 00C0      		rjmp .L73
 970 062c 00C0      		rjmp .L53
 971               	.LVL37:
 972               	.L38:
 973 062e 80E0      		ldi r24,lo8(0)
 974 0630 00C0      		rjmp .L70
 975               	.LVL38:
 976               	.L53:
 977 0632 81E0      		ldi r24,lo8(1)
 978               	.L70:
 979               	/* epilogue start */
 980               	.LBE46:
 981               	.LM35:
 982 0634 6096      		adiw r28,16
 983 0636 0FB6      		in __tmp_reg__,__SREG__
 984 0638 F894      		cli
 985 063a DEBF      		out __SP_H__,r29
 986 063c 0FBE      		out __SREG__,__tmp_reg__
 987 063e CDBF      		out __SP_L__,r28
 988 0640 CF91      		pop r28
 989 0642 DF91      		pop r29
 990 0644 1F91      		pop r17
 991 0646 0F91      		pop r16
 992 0648 FF90      		pop r15
 993 064a EF90      		pop r14
 994 064c DF90      		pop r13
 995 064e CF90      		pop r12
 996               	.LVL39:
 997 0650 BF90      		pop r11
 998 0652 AF90      		pop r10
 999               	.LVL40:
 1000 0654 9F90      		pop r9
 1001 0656 8F90      		pop r8
 1002               	.LVL41:
 1003 0658 7F90      		pop r7
 1004 065a 6F90      		pop r6
 1005 065c 5F90      		pop r5
 1006 065e 4F90      		pop r4
 1007 0660 3F90      		pop r3
 1008 0662 2F90      		pop r2
 1009 0664 0895      		ret
 1010               	.LFE7:
 1013               	fat_append_clusters:
 1014               	.LFB6:
 1015               	.LM36:
 1016               	.LVL42:
 1017 0666 2F92      		push r2
 1018 0668 3F92      		push r3
 1019 066a 4F92      		push r4
 1020 066c 5F92      		push r5
 1021 066e 6F92      		push r6
 1022 0670 7F92      		push r7
 1023 0672 8F92      		push r8
 1024 0674 9F92      		push r9
 1025 0676 AF92      		push r10
 1026 0678 BF92      		push r11
 1027 067a CF92      		push r12
 1028 067c DF92      		push r13
 1029 067e EF92      		push r14
 1030 0680 FF92      		push r15
 1031 0682 0F93      		push r16
 1032               	.LVL43:
 1033 0684 1F93      		push r17
 1034 0686 DF93      		push r29
 1035 0688 CF93      		push r28
 1036 068a CDB7      		in r28,__SP_L__
 1037 068c DEB7      		in r29,__SP_H__
 1038 068e AD97      		sbiw r28,45
 1039 0690 0FB6      		in __tmp_reg__,__SREG__
 1040 0692 F894      		cli
 1041 0694 DEBF      		out __SP_H__,r29
 1042 0696 0FBE      		out __SREG__,__tmp_reg__
 1043 0698 CDBF      		out __SP_L__,r28
 1044               	/* prologue: function */
 1045               	/* frame size = 45 */
 1046 069a 9D8F      		std Y+29,r25
 1047 069c 8C8F      		std Y+28,r24
 1048 069e 3A01      		movw r6,r20
 1049 06a0 4B01      		movw r8,r22
 1050 06a2 B901      		movw r22,r18
 1051               	.LM37:
 1052 06a4 0097      		sbiw r24,0
 1053 06a6 01F4      		brne .+2
 1054 06a8 00C0      		rjmp .L77
 1055               	.LVL44:
 1056               	.LM38:
 1057 06aa DC01      		movw r26,r24
 1058 06ac ED91      		ld r30,X+
 1059 06ae FC91      		ld r31,X
 1060 06b0 1197      		sbiw r26,1
 1061 06b2 E080      		ld r14,Z
 1062 06b4 F180      		ldd r15,Z+1
 1063 06b6 FB8E      		std Y+27,r15
 1064 06b8 EA8E      		std Y+26,r14
 1065               	.LVL45:
 1066               	.LM39:
 1067 06ba 2481      		ldd r18,Z+4
 1068 06bc 3581      		ldd r19,Z+5
 1069 06be 398F      		std Y+25,r19
 1070 06c0 288F      		std Y+24,r18
 1071               	.LVL46:
 1072               	.LM40:
 1073 06c2 1A96      		adiw r26,10
 1074 06c4 3C91      		ld r19,X
 1075 06c6 1A97      		sbiw r26,10
 1076 06c8 3CA3      		std Y+36,r19
 1077 06ca 1B96      		adiw r26,11
 1078 06cc 4C91      		ld r20,X
 1079 06ce 1B97      		sbiw r26,11
 1080 06d0 4DA3      		std Y+37,r20
 1081 06d2 1C96      		adiw r26,12
 1082 06d4 5C91      		ld r21,X
 1083 06d6 1C97      		sbiw r26,12
 1084 06d8 5EA3      		std Y+38,r21
 1085 06da 1D96      		adiw r26,13
 1086 06dc 8C91      		ld r24,X
 1087 06de 1D97      		sbiw r26,13
 1088               	.LVL47:
 1089 06e0 8FA3      		std Y+39,r24
 1090 06e2 1E96      		adiw r26,14
 1091 06e4 9C91      		ld r25,X
 1092 06e6 1E97      		sbiw r26,14
 1093 06e8 98A7      		std Y+40,r25
 1094 06ea 1F96      		adiw r26,15
 1095 06ec AC91      		ld r26,X
 1096 06ee A9A7      		std Y+41,r26
 1097 06f0 AC8D      		ldd r26,Y+28
 1098 06f2 BD8D      		ldd r27,Y+29
 1099 06f4 5096      		adiw r26,16
 1100 06f6 BC91      		ld r27,X
 1101 06f8 BAA7      		std Y+42,r27
 1102 06fa AC8D      		ldd r26,Y+28
 1103 06fc BD8D      		ldd r27,Y+29
 1104 06fe 5196      		adiw r26,17
 1105 0700 BC91      		ld r27,X
 1106 0702 BBA7      		std Y+43,r27
 1107               	.LM41:
 1108 0704 1F86      		std Y+15,__zero_reg__
 1109               	.LVL48:
 1110 0706 8085      		ldd r24,Z+8
 1111 0708 8B30      		cpi r24,lo8(11)
 1112 070a 01F4      		brne .L78
 1113 070c E1E0      		ldi r30,lo8(1)
 1114 070e EF87      		std Y+15,r30
 1115               	.LVL49:
 1116               	.L78:
 1117 0710 EC8D      		ldd r30,Y+28
 1118 0712 FD8D      		ldd r31,Y+29
 1119 0714 8289      		ldd r24,Z+18
 1120 0716 9389      		ldd r25,Z+19
 1121 0718 A489      		ldd r26,Z+20
 1122 071a B589      		ldd r27,Z+21
 1123               	.LM42:
 1124 071c FF85      		ldd r31,Y+15
 1125 071e FF23      		tst r31
 1126 0720 01F0      		breq .L79
 1127               	.LM43:
 1128 0722 9C01      		movw r18,r24
 1129 0724 AD01      		movw r20,r26
 1130 0726 82E0      		ldi r24,2
 1131 0728 5695      	1:	lsr r21
 1132 072a 4795      		ror r20
 1133 072c 3795      		ror r19
 1134 072e 2795      		ror r18
 1135 0730 8A95      		dec r24
 1136 0732 01F4      		brne 1b
 1137 0734 00C0      		rjmp .L153
 1138               	.L79:
 1139               	.LM44:
 1140 0736 9C01      		movw r18,r24
 1141 0738 AD01      		movw r20,r26
 1142 073a 5695      		lsr r21
 1143 073c 4795      		ror r20
 1144 073e 3795      		ror r19
 1145 0740 2795      		ror r18
 1146               	.L153:
 1147 0742 288B      		std Y+16,r18
 1148 0744 398B      		std Y+17,r19
 1149 0746 4A8B      		std Y+18,r20
 1150 0748 5B8B      		std Y+19,r21
 1151               	.LVL50:
 1152 074a C801      		movw r24,r16
 1153 074c DB01      		movw r26,r22
 1154 074e 8C8B      		std Y+20,r24
 1155 0750 9D8B      		std Y+21,r25
 1156 0752 AE8B      		std Y+22,r26
 1157 0754 BF8B      		std Y+23,r27
 1158               	.LVL51:
 1159 0756 AA24      		clr r10
 1160 0758 BB24      		clr r11
 1161 075a 6501      		movw r12,r10
 1162               	.LVL52:
 1163 075c 82E0      		ldi r24,lo8(2)
 1164 075e 90E0      		ldi r25,hi8(2)
 1165 0760 A0E0      		ldi r26,hlo8(2)
 1166 0762 B0E0      		ldi r27,hhi8(2)
 1167               	.LVL53:
 1168 0764 8B87      		std Y+11,r24
 1169 0766 9C87      		std Y+12,r25
 1170 0768 AD87      		std Y+13,r26
 1171 076a BE87      		std Y+14,r27
 1172               	.LVL54:
 1173 076c A4E0      		ldi r26,lo8(4)
 1174 076e EA2E      		mov r14,r26
 1175 0770 F12C      		mov r15,__zero_reg__
 1176 0772 012D      		mov r16,__zero_reg__
 1177 0774 112D      		mov r17,__zero_reg__
 1178 0776 EF82      		std Y+7,r14
 1179 0778 F886      		std Y+8,r15
 1180 077a 0987      		std Y+9,r16
 1181 077c 1A87      		std Y+10,r17
 1182 077e 00C0      		rjmp .L81
 1183               	.LVL55:
 1184               	.L120:
 1185               	.LBB48:
 1186               	.LM45:
 1187 0780 FF84      		ldd r15,Y+15
 1188 0782 FF20      		tst r15
 1189 0784 01F4      		brne .+2
 1190 0786 00C0      		rjmp .L82
 1191               	.LM46:
 1192 0788 8F81      		ldd r24,Y+7
 1193 078a 9885      		ldd r25,Y+8
 1194 078c A985      		ldd r26,Y+9
 1195 078e BA85      		ldd r27,Y+10
 1196 0790 880F      		lsl r24
 1197 0792 991F      		rol r25
 1198 0794 AA1F      		rol r26
 1199 0796 BB1F      		rol r27
 1200 0798 9C01      		movw r18,r24
 1201 079a AD01      		movw r20,r26
 1202 079c 60E0      		ldi r22,lo8(0)
 1203 079e 70E0      		ldi r23,hi8(0)
 1204 07a0 80E0      		ldi r24,hlo8(0)
 1205 07a2 90E0      		ldi r25,hhi8(0)
 1206 07a4 0CA1      		ldd r16,Y+36
 1207 07a6 020F      		add r16,r18
 1208 07a8 0CA7      		std Y+44,r16
 1209 07aa F1E0      		ldi r31,lo8(1)
 1210 07ac 0217      		cp r16,r18
 1211 07ae 00F0      		brlo .L83
 1212 07b0 F0E0      		ldi r31,lo8(0)
 1213               	.L83:
 1214 07b2 EDA1      		ldd r30,Y+37
 1215 07b4 E30F      		add r30,r19
 1216 07b6 A1E0      		ldi r26,lo8(1)
 1217 07b8 E317      		cp r30,r19
 1218 07ba 00F0      		brlo .L84
 1219 07bc A0E0      		ldi r26,lo8(0)
 1220               	.L84:
 1221 07be FE0F      		add r31,r30
 1222 07c0 FE8F      		std Y+30,r31
 1223 07c2 F1E0      		ldi r31,lo8(1)
 1224 07c4 1E8D      		ldd r17,Y+30
 1225 07c6 1E17      		cp r17,r30
 1226 07c8 00F0      		brlo .L85
 1227 07ca F0E0      		ldi r31,lo8(0)
 1228               	.L85:
 1229 07cc AF2B      		or r26,r31
 1230 07ce EEA1      		ldd r30,Y+38
 1231 07d0 E40F      		add r30,r20
 1232 07d2 B1E0      		ldi r27,lo8(1)
 1233 07d4 E417      		cp r30,r20
 1234 07d6 00F0      		brlo .L86
 1235 07d8 B0E0      		ldi r27,lo8(0)
 1236               	.L86:
 1237 07da AE0F      		add r26,r30
 1238 07dc AF8F      		std Y+31,r26
 1239 07de F1E0      		ldi r31,lo8(1)
 1240 07e0 AE17      		cp r26,r30
 1241 07e2 00F0      		brlo .L87
 1242 07e4 F0E0      		ldi r31,lo8(0)
 1243               	.L87:
 1244 07e6 BF2B      		or r27,r31
 1245 07e8 EFA1      		ldd r30,Y+39
 1246 07ea E50F      		add r30,r21
 1247 07ec F1E0      		ldi r31,lo8(1)
 1248 07ee E517      		cp r30,r21
 1249 07f0 00F0      		brlo .L88
 1250 07f2 F0E0      		ldi r31,lo8(0)
 1251               	.L88:
 1252 07f4 BE0F      		add r27,r30
 1253 07f6 B8A3      		std Y+32,r27
 1254 07f8 A1E0      		ldi r26,lo8(1)
 1255 07fa BE17      		cp r27,r30
 1256 07fc 00F0      		brlo .L89
 1257 07fe A0E0      		ldi r26,lo8(0)
 1258               	.L89:
 1259 0800 FA2B      		or r31,r26
 1260 0802 E1E0      		ldi r30,lo8(1)
 1261 0804 A8A5      		ldd r26,Y+40
 1262 0806 A617      		cp r26,r22
 1263 0808 00F0      		brlo .L90
 1264 080a E0E0      		ldi r30,lo8(0)
 1265               	.L90:
 1266 080c 28A4      		ldd r2,Y+40
 1267 080e 2F0E      		add r2,r31
 1268 0810 F1E0      		ldi r31,lo8(1)
 1269 0812 B8A5      		ldd r27,Y+40
 1270 0814 2B16      		cp r2,r27
 1271 0816 00F0      		brlo .L91
 1272 0818 F0E0      		ldi r31,lo8(0)
 1273               	.L91:
 1274 081a EF2B      		or r30,r31
 1275 081c F1E0      		ldi r31,lo8(1)
 1276 081e E9A4      		ldd r14,Y+41
 1277 0820 E716      		cp r14,r23
 1278 0822 00F0      		brlo .L92
 1279 0824 F0E0      		ldi r31,lo8(0)
 1280               	.L92:
 1281 0826 39A4      		ldd r3,Y+41
 1282 0828 3E0E      		add r3,r30
 1283 082a E1E0      		ldi r30,lo8(1)
 1284 082c F9A4      		ldd r15,Y+41
 1285 082e 3F14      		cp r3,r15
 1286 0830 00F0      		brlo .L93
 1287 0832 E0E0      		ldi r30,lo8(0)
 1288               	.L93:
 1289 0834 FE2B      		or r31,r30
 1290 0836 E1E0      		ldi r30,lo8(1)
 1291 0838 0AA5      		ldd r16,Y+42
 1292 083a 0817      		cp r16,r24
 1293 083c 00F0      		brlo .L94
 1294 083e E0E0      		ldi r30,lo8(0)
 1295               	.L94:
 1296 0840 4AA4      		ldd r4,Y+42
 1297 0842 4F0E      		add r4,r31
 1298 0844 91E0      		ldi r25,lo8(1)
 1299 0846 1AA5      		ldd r17,Y+42
 1300 0848 4116      		cp r4,r17
 1301 084a 00F0      		brlo .L95
 1302 084c 90E0      		ldi r25,lo8(0)
 1303               	.L95:
 1304 084e 5E2E      		mov r5,r30
 1305 0850 592A      		or r5,r25
 1306 0852 2BA5      		ldd r18,Y+43
 1307 0854 520E      		add r5,r18
 1308 0856 2CA5      		ldd r18,Y+44
 1309 0858 3E8D      		ldd r19,Y+30
 1310 085a 4F8D      		ldd r20,Y+31
 1311 085c 58A1      		ldd r21,Y+32
 1312 085e B101      		movw r22,r2
 1313 0860 C201      		movw r24,r4
 1314 0862 8E01      		movw r16,r28
 1315 0864 0D5F      		subi r16,lo8(-(3))
 1316 0866 1F4F      		sbci r17,hi8(-(3))
 1317 0868 E4E0      		ldi r30,lo8(4)
 1318 086a EE2E      		mov r14,r30
 1319 086c F12C      		mov r15,__zero_reg__
 1320 086e AA8D      		ldd r26,Y+26
 1321 0870 BB8D      		ldd r27,Y+27
 1322 0872 FD01      		movw r30,r26
 1323 0874 0995      		icall
 1324 0876 8823      		tst r24
 1325 0878 01F0      		breq .+2
 1326 087a 00C0      		rjmp .L151
 1327 087c 00C0      		rjmp .L77
 1328               	.L82:
 1329               	.LM47:
 1330 087e EF80      		ldd r14,Y+7
 1331 0880 F884      		ldd r15,Y+8
 1332 0882 0985      		ldd r16,Y+9
 1333 0884 1A85      		ldd r17,Y+10
 1334 0886 A801      		movw r20,r16
 1335 0888 9701      		movw r18,r14
 1336 088a 60E0      		ldi r22,lo8(0)
 1337 088c 70E0      		ldi r23,hi8(0)
 1338 088e 80E0      		ldi r24,hlo8(0)
 1339 0890 90E0      		ldi r25,hhi8(0)
 1340 0892 FCA0      		ldd r15,Y+36
 1341 0894 F20E      		add r15,r18
 1342 0896 FDA6      		std Y+45,r15
 1343 0898 F1E0      		ldi r31,lo8(1)
 1344 089a F216      		cp r15,r18
 1345 089c 00F0      		brlo .L97
 1346 089e F0E0      		ldi r31,lo8(0)
 1347               	.L97:
 1348 08a0 EDA1      		ldd r30,Y+37
 1349 08a2 E30F      		add r30,r19
 1350 08a4 A1E0      		ldi r26,lo8(1)
 1351 08a6 E317      		cp r30,r19
 1352 08a8 00F0      		brlo .L98
 1353 08aa A0E0      		ldi r26,lo8(0)
 1354               	.L98:
 1355 08ac FE0F      		add r31,r30
 1356 08ae F9A3      		std Y+33,r31
 1357 08b0 F1E0      		ldi r31,lo8(1)
 1358 08b2 09A1      		ldd r16,Y+33
 1359 08b4 0E17      		cp r16,r30
 1360 08b6 00F0      		brlo .L99
 1361 08b8 F0E0      		ldi r31,lo8(0)
 1362               	.L99:
 1363 08ba AF2B      		or r26,r31
 1364 08bc EEA1      		ldd r30,Y+38
 1365 08be E40F      		add r30,r20
 1366 08c0 B1E0      		ldi r27,lo8(1)
 1367 08c2 E417      		cp r30,r20
 1368 08c4 00F0      		brlo .L100
 1369 08c6 B0E0      		ldi r27,lo8(0)
 1370               	.L100:
 1371 08c8 AE0F      		add r26,r30
 1372 08ca AAA3      		std Y+34,r26
 1373 08cc F1E0      		ldi r31,lo8(1)
 1374 08ce AE17      		cp r26,r30
 1375 08d0 00F0      		brlo .L101
 1376 08d2 F0E0      		ldi r31,lo8(0)
 1377               	.L101:
 1378 08d4 BF2B      		or r27,r31
 1379 08d6 EFA1      		ldd r30,Y+39
 1380 08d8 E50F      		add r30,r21
 1381 08da A1E0      		ldi r26,lo8(1)
 1382 08dc E517      		cp r30,r21
 1383 08de 00F0      		brlo .L102
 1384 08e0 A0E0      		ldi r26,lo8(0)
 1385               	.L102:
 1386 08e2 BE0F      		add r27,r30
 1387 08e4 BBA3      		std Y+35,r27
 1388 08e6 F1E0      		ldi r31,lo8(1)
 1389 08e8 BE17      		cp r27,r30
 1390 08ea 00F0      		brlo .L103
 1391 08ec F0E0      		ldi r31,lo8(0)
 1392               	.L103:
 1393 08ee AF2B      		or r26,r31
 1394 08f0 E8A5      		ldd r30,Y+40
 1395 08f2 E60F      		add r30,r22
 1396 08f4 B1E0      		ldi r27,lo8(1)
 1397 08f6 E617      		cp r30,r22
 1398 08f8 00F0      		brlo .L104
 1399 08fa B0E0      		ldi r27,lo8(0)
 1400               	.L104:
 1401 08fc 2A2E      		mov r2,r26
 1402 08fe 2E0E      		add r2,r30
 1403 0900 F1E0      		ldi r31,lo8(1)
 1404 0902 2E16      		cp r2,r30
 1405 0904 00F0      		brlo .L105
 1406 0906 F0E0      		ldi r31,lo8(0)
 1407               	.L105:
 1408 0908 BF2B      		or r27,r31
 1409 090a E9A5      		ldd r30,Y+41
 1410 090c E70F      		add r30,r23
 1411 090e A1E0      		ldi r26,lo8(1)
 1412 0910 E717      		cp r30,r23
 1413 0912 00F0      		brlo .L106
 1414 0914 A0E0      		ldi r26,lo8(0)
 1415               	.L106:
 1416 0916 3B2E      		mov r3,r27
 1417 0918 3E0E      		add r3,r30
 1418 091a F1E0      		ldi r31,lo8(1)
 1419 091c 3E16      		cp r3,r30
 1420 091e 00F0      		brlo .L107
 1421 0920 F0E0      		ldi r31,lo8(0)
 1422               	.L107:
 1423 0922 AF2B      		or r26,r31
 1424 0924 EAA5      		ldd r30,Y+42
 1425 0926 E80F      		add r30,r24
 1426 0928 B1E0      		ldi r27,lo8(1)
 1427 092a E817      		cp r30,r24
 1428 092c 00F0      		brlo .L108
 1429 092e B0E0      		ldi r27,lo8(0)
 1430               	.L108:
 1431 0930 4A2E      		mov r4,r26
 1432 0932 4E0E      		add r4,r30
 1433 0934 F1E0      		ldi r31,lo8(1)
 1434 0936 4E16      		cp r4,r30
 1435 0938 00F0      		brlo .L109
 1436 093a F0E0      		ldi r31,lo8(0)
 1437               	.L109:
 1438 093c 5B2E      		mov r5,r27
 1439 093e 5F2A      		or r5,r31
 1440 0940 8BA5      		ldd r24,Y+43
 1441 0942 890F      		add r24,r25
 1442 0944 580E      		add r5,r24
 1443 0946 2DA5      		ldd r18,Y+45
 1444 0948 39A1      		ldd r19,Y+33
 1445 094a 4AA1      		ldd r20,Y+34
 1446 094c 5BA1      		ldd r21,Y+35
 1447 094e B101      		movw r22,r2
 1448 0950 C201      		movw r24,r4
 1449 0952 8E01      		movw r16,r28
 1450 0954 0F5F      		subi r16,lo8(-(1))
 1451 0956 1F4F      		sbci r17,hi8(-(1))
 1452 0958 B2E0      		ldi r27,lo8(2)
 1453 095a EB2E      		mov r14,r27
 1454 095c F12C      		mov r15,__zero_reg__
 1455 095e AA8D      		ldd r26,Y+26
 1456 0960 BB8D      		ldd r27,Y+27
 1457 0962 FD01      		movw r30,r26
 1458 0964 0995      		icall
 1459 0966 8823      		tst r24
 1460 0968 01F4      		brne .+2
 1461 096a 00C0      		rjmp .L77
 1462               	.LM48:
 1463 096c 8981      		ldd r24,Y+1
 1464 096e 9A81      		ldd r25,Y+2
 1465 0970 892B      		or r24,r25
 1466 0972 01F0      		breq .+2
 1467 0974 00C0      		rjmp .L110
 1468               	.LVL56:
 1469 0976 00C0      		rjmp .L156
 1470               	.LVL57:
 1471               	.L151:
 1472               	.LM49:
 1473 0978 8B81      		ldd r24,Y+3
 1474 097a 9C81      		ldd r25,Y+4
 1475 097c AD81      		ldd r26,Y+5
 1476 097e BE81      		ldd r27,Y+6
 1477 0980 0097      		sbiw r24,0
 1478 0982 A105      		cpc r26,__zero_reg__
 1479 0984 B105      		cpc r27,__zero_reg__
 1480 0986 01F0      		breq .+2
 1481 0988 00C0      		rjmp .L110
 1482               	.LVL58:
 1483               	.LM50:
 1484 098a A114      		cp r10,__zero_reg__
 1485 098c B104      		cpc r11,__zero_reg__
 1486 098e C104      		cpc r12,__zero_reg__
 1487 0990 D104      		cpc r13,__zero_reg__
 1488 0992 01F4      		brne .L112
 1489               	.LM51:
 1490 0994 AFEF      		ldi r26,lo8(268435455)
 1491 0996 EA2E      		mov r14,r26
 1492 0998 AFEF      		ldi r26,hi8(268435455)
 1493 099a FA2E      		mov r15,r26
 1494 099c AFEF      		ldi r26,hlo8(268435455)
 1495 099e 0A2F      		mov r16,r26
 1496 09a0 AFE0      		ldi r26,hhi8(268435455)
 1497 09a2 1A2F      		mov r17,r26
 1498 09a4 EB82      		std Y+3,r14
 1499 09a6 FC82      		std Y+4,r15
 1500 09a8 0D83      		std Y+5,r16
 1501 09aa 1E83      		std Y+6,r17
 1502               	.LVL59:
 1503 09ac 00C0      		rjmp .L113
 1504               	.LVL60:
 1505               	.L112:
 1506               	.LM52:
 1507 09ae AB82      		std Y+3,r10
 1508 09b0 BC82      		std Y+4,r11
 1509 09b2 CD82      		std Y+5,r12
 1510 09b4 DE82      		std Y+6,r13
 1511               	.LVL61:
 1512               	.L113:
 1513               	.LM53:
 1514 09b6 2CA5      		ldd r18,Y+44
 1515 09b8 3E8D      		ldd r19,Y+30
 1516 09ba 4F8D      		ldd r20,Y+31
 1517 09bc 58A1      		ldd r21,Y+32
 1518 09be B101      		movw r22,r2
 1519 09c0 C201      		movw r24,r4
 1520 09c2 8E01      		movw r16,r28
 1521 09c4 0D5F      		subi r16,lo8(-(3))
 1522 09c6 1F4F      		sbci r17,hi8(-(3))
 1523 09c8 F4E0      		ldi r31,lo8(4)
 1524 09ca EF2E      		mov r14,r31
 1525 09cc F12C      		mov r15,__zero_reg__
 1526 09ce 00C0      		rjmp .L154
 1527               	.LVL62:
 1528               	.L156:
 1529               	.LM54:
 1530 09d0 A114      		cp r10,__zero_reg__
 1531 09d2 B104      		cpc r11,__zero_reg__
 1532 09d4 C104      		cpc r12,__zero_reg__
 1533 09d6 D104      		cpc r13,__zero_reg__
 1534 09d8 01F4      		brne .L116
 1535               	.LM55:
 1536 09da EFEF      		ldi r30,lo8(-1)
 1537 09dc FFEF      		ldi r31,hi8(-1)
 1538 09de FA83      		std Y+2,r31
 1539 09e0 E983      		std Y+1,r30
 1540               	.LVL63:
 1541 09e2 00C0      		rjmp .L117
 1542               	.LVL64:
 1543               	.L116:
 1544               	.LM56:
 1545 09e4 BA82      		std Y+2,r11
 1546 09e6 A982      		std Y+1,r10
 1547               	.LVL65:
 1548               	.L117:
 1549               	.LM57:
 1550 09e8 2DA5      		ldd r18,Y+45
 1551 09ea 39A1      		ldd r19,Y+33
 1552 09ec 4AA1      		ldd r20,Y+34
 1553 09ee 5BA1      		ldd r21,Y+35
 1554 09f0 B101      		movw r22,r2
 1555 09f2 C201      		movw r24,r4
 1556 09f4 8E01      		movw r16,r28
 1557 09f6 0F5F      		subi r16,lo8(-(1))
 1558 09f8 1F4F      		sbci r17,hi8(-(1))
 1559 09fa E2E0      		ldi r30,lo8(2)
 1560 09fc EE2E      		mov r14,r30
 1561 09fe F12C      		mov r15,__zero_reg__
 1562               	.L154:
 1563 0a00 A88D      		ldd r26,Y+24
 1564 0a02 B98D      		ldd r27,Y+25
 1565 0a04 FD01      		movw r30,r26
 1566 0a06 0995      		icall
 1567 0a08 8823      		tst r24
 1568 0a0a 01F4      		brne .+2
 1569 0a0c 00C0      		rjmp .L114
 1570               	.LM58:
 1571 0a0e 0C89      		ldd r16,Y+20
 1572 0a10 1D89      		ldd r17,Y+21
 1573 0a12 2E89      		ldd r18,Y+22
 1574 0a14 3F89      		ldd r19,Y+23
 1575 0a16 0150      		subi r16,lo8(-(-1))
 1576 0a18 1040      		sbci r17,hi8(-(-1))
 1577 0a1a 2040      		sbci r18,hlo8(-(-1))
 1578 0a1c 3040      		sbci r19,hhi8(-(-1))
 1579 0a1e 0C8B      		std Y+20,r16
 1580 0a20 1D8B      		std Y+21,r17
 1581 0a22 2E8B      		std Y+22,r18
 1582 0a24 3F8B      		std Y+23,r19
 1583               	.LVL66:
 1584 0a26 0115      		cp r16,__zero_reg__
 1585 0a28 1105      		cpc r17,__zero_reg__
 1586 0a2a 2105      		cpc r18,__zero_reg__
 1587 0a2c 3105      		cpc r19,__zero_reg__
 1588 0a2e 01F4      		brne .L118
 1589 0a30 AB84      		ldd r10,Y+11
 1590 0a32 BC84      		ldd r11,Y+12
 1591 0a34 CD84      		ldd r12,Y+13
 1592 0a36 DE84      		ldd r13,Y+14
 1593 0a38 00C0      		rjmp .L119
 1594               	.L118:
 1595 0a3a AB84      		ldd r10,Y+11
 1596 0a3c BC84      		ldd r11,Y+12
 1597 0a3e CD84      		ldd r12,Y+13
 1598 0a40 DE84      		ldd r13,Y+14
 1599               	.LVL67:
 1600               	.L110:
 1601               	.LM59:
 1602 0a42 2B85      		ldd r18,Y+11
 1603 0a44 3C85      		ldd r19,Y+12
 1604 0a46 4D85      		ldd r20,Y+13
 1605 0a48 5E85      		ldd r21,Y+14
 1606 0a4a 2F5F      		subi r18,lo8(-(1))
 1607 0a4c 3F4F      		sbci r19,hi8(-(1))
 1608 0a4e 4F4F      		sbci r20,hlo8(-(1))
 1609 0a50 5F4F      		sbci r21,hhi8(-(1))
 1610 0a52 2B87      		std Y+11,r18
 1611 0a54 3C87      		std Y+12,r19
 1612 0a56 4D87      		std Y+13,r20
 1613 0a58 5E87      		std Y+14,r21
 1614               	.LVL68:
 1615 0a5a 8F81      		ldd r24,Y+7
 1616 0a5c 9885      		ldd r25,Y+8
 1617 0a5e A985      		ldd r26,Y+9
 1618 0a60 BA85      		ldd r27,Y+10
 1619 0a62 0296      		adiw r24,2
 1620 0a64 A11D      		adc r26,__zero_reg__
 1621 0a66 B11D      		adc r27,__zero_reg__
 1622 0a68 8F83      		std Y+7,r24
 1623 0a6a 9887      		std Y+8,r25
 1624 0a6c A987      		std Y+9,r26
 1625 0a6e BA87      		std Y+10,r27
 1626               	.L81:
 1627 0a70 EB84      		ldd r14,Y+11
 1628 0a72 FC84      		ldd r15,Y+12
 1629 0a74 0D85      		ldd r16,Y+13
 1630 0a76 1E85      		ldd r17,Y+14
 1631 0a78 2889      		ldd r18,Y+16
 1632 0a7a 3989      		ldd r19,Y+17
 1633 0a7c 4A89      		ldd r20,Y+18
 1634 0a7e 5B89      		ldd r21,Y+19
 1635 0a80 E216      		cp r14,r18
 1636 0a82 F306      		cpc r15,r19
 1637 0a84 0407      		cpc r16,r20
 1638 0a86 1507      		cpc r17,r21
 1639 0a88 00F4      		brsh .+2
 1640 0a8a 00C0      		rjmp .L120
 1641               	.L114:
 1642               	.LBE48:
 1643               	.LM60:
 1644 0a8c 8C89      		ldd r24,Y+20
 1645 0a8e 9D89      		ldd r25,Y+21
 1646 0a90 AE89      		ldd r26,Y+22
 1647 0a92 BF89      		ldd r27,Y+23
 1648 0a94 0097      		sbiw r24,0
 1649 0a96 A105      		cpc r26,__zero_reg__
 1650 0a98 B105      		cpc r27,__zero_reg__
 1651 0a9a 01F0      		breq .+2
 1652 0a9c 00C0      		rjmp .L121
 1653               	.L119:
 1654               	.LM61:
 1655 0a9e 92E0      		ldi r25,lo8(2)
 1656 0aa0 6916      		cp r6,r25
 1657 0aa2 7104      		cpc r7,__zero_reg__
 1658 0aa4 8104      		cpc r8,__zero_reg__
 1659 0aa6 9104      		cpc r9,__zero_reg__
 1660 0aa8 00F4      		brsh .+2
 1661 0aaa 00C0      		rjmp .L122
 1662               	.LM62:
 1663 0aac AF85      		ldd r26,Y+15
 1664 0aae AA23      		tst r26
 1665 0ab0 01F4      		brne .+2
 1666 0ab2 00C0      		rjmp .L123
 1667               	.LM63:
 1668 0ab4 AB82      		std Y+3,r10
 1669 0ab6 BC82      		std Y+4,r11
 1670 0ab8 CD82      		std Y+5,r12
 1671 0aba DE82      		std Y+6,r13
 1672               	.LVL69:
 1673               	.LM64:
 1674 0abc B2E0      		ldi r27,2
 1675 0abe 660C      	1:	lsl r6
 1676 0ac0 771C      		rol r7
 1677 0ac2 881C      		rol r8
 1678 0ac4 991C      		rol r9
 1679 0ac6 BA95      		dec r27
 1680 0ac8 01F4      		brne 1b
 1681 0aca B401      		movw r22,r8
 1682 0acc A301      		movw r20,r6
 1683 0ace 80E0      		ldi r24,lo8(0)
 1684 0ad0 90E0      		ldi r25,hi8(0)
 1685 0ad2 A0E0      		ldi r26,hlo8(0)
 1686 0ad4 B0E0      		ldi r27,hhi8(0)
 1687 0ad6 2CA1      		ldd r18,Y+36
 1688 0ad8 260D      		add r18,r6
 1689               	.LVL70:
 1690 0ada 31E0      		ldi r19,lo8(1)
 1691 0adc 2615      		cp r18,r6
 1692 0ade 00F0      		brlo .L124
 1693 0ae0 30E0      		ldi r19,lo8(0)
 1694               	.L124:
 1695 0ae2 EDA1      		ldd r30,Y+37
 1696 0ae4 E50F      		add r30,r21
 1697 0ae6 11E0      		ldi r17,lo8(1)
 1698 0ae8 E517      		cp r30,r21
 1699 0aea 00F0      		brlo .L125
 1700 0aec 10E0      		ldi r17,lo8(0)
 1701               	.L125:
 1702 0aee 3E0F      		add r19,r30
 1703 0af0 F1E0      		ldi r31,lo8(1)
 1704 0af2 3E17      		cp r19,r30
 1705 0af4 00F0      		brlo .L126
 1706 0af6 F0E0      		ldi r31,lo8(0)
 1707               	.L126:
 1708 0af8 1F2B      		or r17,r31
 1709 0afa EEA1      		ldd r30,Y+38
 1710 0afc E60F      		add r30,r22
 1711 0afe 01E0      		ldi r16,lo8(1)
 1712 0b00 E617      		cp r30,r22
 1713 0b02 00F0      		brlo .L127
 1714 0b04 00E0      		ldi r16,lo8(0)
 1715               	.L127:
 1716 0b06 912E      		mov r9,r17
 1717 0b08 9E0E      		add r9,r30
 1718 0b0a F1E0      		ldi r31,lo8(1)
 1719 0b0c 9E16      		cp r9,r30
 1720 0b0e 00F0      		brlo .L128
 1721 0b10 F0E0      		ldi r31,lo8(0)
 1722               	.L128:
 1723 0b12 0F2B      		or r16,r31
 1724 0b14 EFA1      		ldd r30,Y+39
 1725 0b16 E70F      		add r30,r23
 1726 0b18 F1E0      		ldi r31,lo8(1)
 1727 0b1a E717      		cp r30,r23
 1728 0b1c 00F0      		brlo .L129
 1729 0b1e F0E0      		ldi r31,lo8(0)
 1730               	.L129:
 1731 0b20 E02E      		mov r14,r16
 1732 0b22 EE0E      		add r14,r30
 1733 0b24 11E0      		ldi r17,lo8(1)
 1734 0b26 EE16      		cp r14,r30
 1735 0b28 00F0      		brlo .L130
 1736 0b2a 10E0      		ldi r17,lo8(0)
 1737               	.L130:
 1738 0b2c F12B      		or r31,r17
 1739 0b2e E1E0      		ldi r30,lo8(1)
 1740 0b30 F8A4      		ldd r15,Y+40
 1741 0b32 F816      		cp r15,r24
 1742 0b34 00F0      		brlo .L131
 1743 0b36 E0E0      		ldi r30,lo8(0)
 1744               	.L131:
 1745 0b38 F8A4      		ldd r15,Y+40
 1746 0b3a FF0E      		add r15,r31
 1747 0b3c F1E0      		ldi r31,lo8(1)
 1748 0b3e 08A5      		ldd r16,Y+40
 1749 0b40 F016      		cp r15,r16
 1750 0b42 00F0      		brlo .L132
 1751 0b44 F0E0      		ldi r31,lo8(0)
 1752               	.L132:
 1753 0b46 EF2B      		or r30,r31
 1754 0b48 F1E0      		ldi r31,lo8(1)
 1755 0b4a 19A5      		ldd r17,Y+41
 1756 0b4c 1917      		cp r17,r25
 1757 0b4e 00F0      		brlo .L133
 1758 0b50 F0E0      		ldi r31,lo8(0)
 1759               	.L133:
 1760 0b52 09A5      		ldd r16,Y+41
 1761 0b54 0E0F      		add r16,r30
 1762 0b56 E1E0      		ldi r30,lo8(1)
 1763 0b58 19A5      		ldd r17,Y+41
 1764 0b5a 0117      		cp r16,r17
 1765 0b5c 00F0      		brlo .L134
 1766 0b5e E0E0      		ldi r30,lo8(0)
 1767               	.L134:
 1768 0b60 FE2B      		or r31,r30
 1769 0b62 11E0      		ldi r17,lo8(1)
 1770 0b64 EAA5      		ldd r30,Y+42
 1771 0b66 EA17      		cp r30,r26
 1772 0b68 00F0      		brlo .L135
 1773 0b6a 10E0      		ldi r17,lo8(0)
 1774               	.L135:
 1775 0b6c 8AA5      		ldd r24,Y+42
 1776 0b6e 8F0F      		add r24,r31
 1777 0b70 E1E0      		ldi r30,lo8(1)
 1778 0b72 FAA5      		ldd r31,Y+42
 1779 0b74 8F17      		cp r24,r31
 1780 0b76 00F0      		brlo .L136
 1781 0b78 E0E0      		ldi r30,lo8(0)
 1782               	.L136:
 1783 0b7a 1E2B      		or r17,r30
 1784 0b7c 492D      		mov r20,r9
 1785 0b7e 5E2D      		mov r21,r14
 1786 0b80 6F2D      		mov r22,r15
 1787 0b82 702F      		mov r23,r16
 1788 0b84 9BA5      		ldd r25,Y+43
 1789 0b86 910F      		add r25,r17
 1790 0b88 8E01      		movw r16,r28
 1791 0b8a 0D5F      		subi r16,lo8(-(3))
 1792 0b8c 1F4F      		sbci r17,hi8(-(3))
 1793 0b8e A4E0      		ldi r26,lo8(4)
 1794 0b90 EA2E      		mov r14,r26
 1795 0b92 F12C      		mov r15,__zero_reg__
 1796 0b94 00C0      		rjmp .L155
 1797               	.LVL71:
 1798               	.L123:
 1799               	.LM65:
 1800 0b96 BA82      		std Y+2,r11
 1801 0b98 A982      		std Y+1,r10
 1802               	.LVL72:
 1803               	.LM66:
 1804 0b9a 660C      		lsl r6
 1805 0b9c 771C      		rol r7
 1806 0b9e 881C      		rol r8
 1807 0ba0 991C      		rol r9
 1808 0ba2 B401      		movw r22,r8
 1809 0ba4 A301      		movw r20,r6
 1810 0ba6 80E0      		ldi r24,lo8(0)
 1811 0ba8 90E0      		ldi r25,hi8(0)
 1812 0baa A0E0      		ldi r26,hlo8(0)
 1813 0bac B0E0      		ldi r27,hhi8(0)
 1814 0bae 2CA1      		ldd r18,Y+36
 1815 0bb0 260D      		add r18,r6
 1816               	.LVL73:
 1817 0bb2 31E0      		ldi r19,lo8(1)
 1818 0bb4 2615      		cp r18,r6
 1819 0bb6 00F0      		brlo .L137
 1820 0bb8 30E0      		ldi r19,lo8(0)
 1821               	.L137:
 1822 0bba EDA1      		ldd r30,Y+37
 1823 0bbc E50F      		add r30,r21
 1824 0bbe 11E0      		ldi r17,lo8(1)
 1825 0bc0 E517      		cp r30,r21
 1826 0bc2 00F0      		brlo .L138
 1827 0bc4 10E0      		ldi r17,lo8(0)
 1828               	.L138:
 1829 0bc6 3E0F      		add r19,r30
 1830 0bc8 F1E0      		ldi r31,lo8(1)
 1831 0bca 3E17      		cp r19,r30
 1832 0bcc 00F0      		brlo .L139
 1833 0bce F0E0      		ldi r31,lo8(0)
 1834               	.L139:
 1835 0bd0 1F2B      		or r17,r31
 1836 0bd2 EEA1      		ldd r30,Y+38
 1837 0bd4 E60F      		add r30,r22
 1838 0bd6 01E0      		ldi r16,lo8(1)
 1839 0bd8 E617      		cp r30,r22
 1840 0bda 00F0      		brlo .L140
 1841 0bdc 00E0      		ldi r16,lo8(0)
 1842               	.L140:
 1843 0bde 912E      		mov r9,r17
 1844 0be0 9E0E      		add r9,r30
 1845 0be2 F1E0      		ldi r31,lo8(1)
 1846 0be4 9E16      		cp r9,r30
 1847 0be6 00F0      		brlo .L141
 1848 0be8 F0E0      		ldi r31,lo8(0)
 1849               	.L141:
 1850 0bea 0F2B      		or r16,r31
 1851 0bec EFA1      		ldd r30,Y+39
 1852 0bee E70F      		add r30,r23
 1853 0bf0 F1E0      		ldi r31,lo8(1)
 1854 0bf2 E717      		cp r30,r23
 1855 0bf4 00F0      		brlo .L142
 1856 0bf6 F0E0      		ldi r31,lo8(0)
 1857               	.L142:
 1858 0bf8 E02E      		mov r14,r16
 1859 0bfa EE0E      		add r14,r30
 1860 0bfc 11E0      		ldi r17,lo8(1)
 1861 0bfe EE16      		cp r14,r30
 1862 0c00 00F0      		brlo .L143
 1863 0c02 10E0      		ldi r17,lo8(0)
 1864               	.L143:
 1865 0c04 F12B      		or r31,r17
 1866 0c06 E1E0      		ldi r30,lo8(1)
 1867 0c08 F8A4      		ldd r15,Y+40
 1868 0c0a F816      		cp r15,r24
 1869 0c0c 00F0      		brlo .L144
 1870 0c0e E0E0      		ldi r30,lo8(0)
 1871               	.L144:
 1872 0c10 F8A4      		ldd r15,Y+40
 1873 0c12 FF0E      		add r15,r31
 1874 0c14 F1E0      		ldi r31,lo8(1)
 1875 0c16 08A5      		ldd r16,Y+40
 1876 0c18 F016      		cp r15,r16
 1877 0c1a 00F0      		brlo .L145
 1878 0c1c F0E0      		ldi r31,lo8(0)
 1879               	.L145:
 1880 0c1e EF2B      		or r30,r31
 1881 0c20 F1E0      		ldi r31,lo8(1)
 1882 0c22 19A5      		ldd r17,Y+41
 1883 0c24 1917      		cp r17,r25
 1884 0c26 00F0      		brlo .L146
 1885 0c28 F0E0      		ldi r31,lo8(0)
 1886               	.L146:
 1887 0c2a 09A5      		ldd r16,Y+41
 1888 0c2c 0E0F      		add r16,r30
 1889 0c2e E1E0      		ldi r30,lo8(1)
 1890 0c30 19A5      		ldd r17,Y+41
 1891 0c32 0117      		cp r16,r17
 1892 0c34 00F0      		brlo .L147
 1893 0c36 E0E0      		ldi r30,lo8(0)
 1894               	.L147:
 1895 0c38 FE2B      		or r31,r30
 1896 0c3a 11E0      		ldi r17,lo8(1)
 1897 0c3c EAA5      		ldd r30,Y+42
 1898 0c3e EA17      		cp r30,r26
 1899 0c40 00F0      		brlo .L148
 1900 0c42 10E0      		ldi r17,lo8(0)
 1901               	.L148:
 1902 0c44 8AA5      		ldd r24,Y+42
 1903 0c46 8F0F      		add r24,r31
 1904 0c48 E1E0      		ldi r30,lo8(1)
 1905 0c4a FAA5      		ldd r31,Y+42
 1906 0c4c 8F17      		cp r24,r31
 1907 0c4e 00F0      		brlo .L149
 1908 0c50 E0E0      		ldi r30,lo8(0)
 1909               	.L149:
 1910 0c52 1E2B      		or r17,r30
 1911 0c54 492D      		mov r20,r9
 1912 0c56 5E2D      		mov r21,r14
 1913 0c58 6F2D      		mov r22,r15
 1914 0c5a 702F      		mov r23,r16
 1915 0c5c 9BA5      		ldd r25,Y+43
 1916 0c5e 910F      		add r25,r17
 1917 0c60 8E01      		movw r16,r28
 1918 0c62 0F5F      		subi r16,lo8(-(1))
 1919 0c64 1F4F      		sbci r17,hi8(-(1))
 1920 0c66 E2E0      		ldi r30,lo8(2)
 1921 0c68 EE2E      		mov r14,r30
 1922 0c6a F12C      		mov r15,__zero_reg__
 1923               	.L155:
 1924 0c6c A88D      		ldd r26,Y+24
 1925 0c6e B98D      		ldd r27,Y+25
 1926 0c70 FD01      		movw r30,r26
 1927 0c72 0995      		icall
 1928 0c74 8823      		tst r24
 1929 0c76 01F4      		brne .L122
 1930               	.LVL74:
 1931               	.L121:
 1932               	.LM67:
 1933 0c78 8C8D      		ldd r24,Y+28
 1934 0c7a 9D8D      		ldd r25,Y+29
 1935 0c7c B601      		movw r22,r12
 1936 0c7e A501      		movw r20,r10
 1937 0c80 0E94 0000 		call fat_free_clusters
 1938               	.LVL75:
 1939               	.L77:
 1940               	.LM68:
 1941 0c84 AA24      		clr r10
 1942 0c86 BB24      		clr r11
 1943 0c88 6501      		movw r12,r10
 1944               	.L122:
 1945               	.LM69:
 1946 0c8a B501      		movw r22,r10
 1947               	.LVL76:
 1948 0c8c C601      		movw r24,r12
 1949               	/* epilogue start */
 1950 0c8e AD96      		adiw r28,45
 1951 0c90 0FB6      		in __tmp_reg__,__SREG__
 1952 0c92 F894      		cli
 1953 0c94 DEBF      		out __SP_H__,r29
 1954 0c96 0FBE      		out __SREG__,__tmp_reg__
 1955 0c98 CDBF      		out __SP_L__,r28
 1956 0c9a CF91      		pop r28
 1957 0c9c DF91      		pop r29
 1958 0c9e 1F91      		pop r17
 1959 0ca0 0F91      		pop r16
 1960 0ca2 FF90      		pop r15
 1961 0ca4 EF90      		pop r14
 1962 0ca6 DF90      		pop r13
 1963 0ca8 CF90      		pop r12
 1964 0caa BF90      		pop r11
 1965 0cac AF90      		pop r10
 1966 0cae 9F90      		pop r9
 1967 0cb0 8F90      		pop r8
 1968 0cb2 7F90      		pop r7
 1969 0cb4 6F90      		pop r6
 1970               	.LVL77:
 1971 0cb6 5F90      		pop r5
 1972 0cb8 4F90      		pop r4
 1973 0cba 3F90      		pop r3
 1974 0cbc 2F90      		pop r2
 1975 0cbe 0895      		ret
 1976               	.LFE6:
 1979               	fat_clear_cluster_callback:
 1980               	.LFB10:
 1981               	.LM70:
 1982               	.LVL78:
 1983               	/* prologue: function */
 1984               	/* frame size = 0 */
 1985               	.LM71:
 1986 0cc0 80E1      		ldi r24,lo8(16)
 1987 0cc2 90E0      		ldi r25,hi8(16)
 1988               	.LVL79:
 1989               	/* epilogue start */
 1990 0cc4 0895      		ret
 1991               	.LFE10:
 1993               	.global	fat_close_file
 1995               	fat_close_file:
 1996               	.LFB14:
 1997               	.LM72:
 1998               	.LVL80:
 1999               	/* prologue: function */
 2000               	/* frame size = 0 */
 2001 0cc6 FC01      		movw r30,r24
 2002               	.LM73:
 2003 0cc8 0097      		sbiw r24,0
 2004 0cca 01F0      		breq .L161
 2005               	.LM74:
 2006 0ccc 1182      		std Z+1,__zero_reg__
 2007 0cce 1082      		st Z,__zero_reg__
 2008               	.LVL81:
 2009               	.L161:
 2010 0cd0 0895      		ret
 2011               	.LFE14:
 2013               	.global	fat_read_file
 2015               	fat_read_file:
 2016               	.LFB15:
 2017               	.LM75:
 2018               	.LVL82:
 2019 0cd2 2F92      		push r2
 2020 0cd4 3F92      		push r3
 2021 0cd6 4F92      		push r4
 2022 0cd8 5F92      		push r5
 2023 0cda 6F92      		push r6
 2024 0cdc 7F92      		push r7
 2025 0cde 8F92      		push r8
 2026 0ce0 9F92      		push r9
 2027 0ce2 AF92      		push r10
 2028 0ce4 BF92      		push r11
 2029 0ce6 CF92      		push r12
 2030 0ce8 DF92      		push r13
 2031 0cea EF92      		push r14
 2032 0cec FF92      		push r15
 2033 0cee 0F93      		push r16
 2034 0cf0 1F93      		push r17
 2035 0cf2 DF93      		push r29
 2036 0cf4 CF93      		push r28
 2037 0cf6 CDB7      		in r28,__SP_L__
 2038 0cf8 DEB7      		in r29,__SP_H__
 2039 0cfa 6897      		sbiw r28,24
 2040 0cfc 0FB6      		in __tmp_reg__,__SREG__
 2041 0cfe F894      		cli
 2042 0d00 DEBF      		out __SP_H__,r29
 2043 0d02 0FBE      		out __SREG__,__tmp_reg__
 2044 0d04 CDBF      		out __SP_L__,r28
 2045               	/* prologue: function */
 2046               	/* frame size = 24 */
 2047 0d06 988F      		std Y+24,r25
 2048 0d08 8F8B      		std Y+23,r24
 2049 0d0a 7E87      		std Y+14,r23
 2050 0d0c 6D87      		std Y+13,r22
 2051 0d0e 588B      		std Y+16,r21
 2052 0d10 4F87      		std Y+15,r20
 2053               	.LM76:
 2054 0d12 0097      		sbiw r24,0
 2055 0d14 01F4      		brne .+2
 2056 0d16 00C0      		rjmp .L163
 2057               	.LVL83:
 2058 0d18 672B      		or r22,r23
 2059 0d1a 01F4      		brne .+2
 2060 0d1c 00C0      		rjmp .L163
 2061               	.LVL84:
 2062 0d1e 4115      		cp r20,__zero_reg__
 2063 0d20 5105      		cpc r21,__zero_reg__
 2064 0d22 01F4      		brne .+2
 2065 0d24 00C0      		rjmp .L163
 2066               	.LVL85:
 2067               	.LM77:
 2068 0d26 DC01      		movw r26,r24
 2069 0d28 D396      		adiw r26,51
 2070 0d2a AC90      		ld r10,X
 2071 0d2c D397      		sbiw r26,51
 2072 0d2e D496      		adiw r26,52
 2073 0d30 BC90      		ld r11,X
 2074 0d32 D497      		sbiw r26,52
 2075 0d34 D596      		adiw r26,53
 2076 0d36 CC90      		ld r12,X
 2077 0d38 D597      		sbiw r26,53
 2078 0d3a D696      		adiw r26,54
 2079 0d3c DC90      		ld r13,X
 2080 0d3e D697      		sbiw r26,54
 2081 0d40 D796      		adiw r26,55
 2082 0d42 EC90      		ld r14,X
 2083 0d44 D797      		sbiw r26,55
 2084 0d46 D896      		adiw r26,56
 2085 0d48 FC90      		ld r15,X
 2086 0d4a D897      		sbiw r26,56
 2087 0d4c D996      		adiw r26,57
 2088 0d4e 0C91      		ld r16,X
 2089 0d50 D997      		sbiw r26,57
 2090 0d52 DA96      		adiw r26,58
 2091 0d54 1C91      		ld r17,X
 2092 0d56 DA97      		sbiw r26,58
 2093 0d58 9796      		adiw r26,39
 2094 0d5a 2D90      		ld r2,X+
 2095 0d5c 3D90      		ld r3,X+
 2096 0d5e 4D90      		ld r4,X+
 2097 0d60 5C90      		ld r5,X
 2098 0d62 9A97      		sbiw r26,39+3
 2099 0d64 9A01      		movw r18,r20
 2100 0d66 40E0      		ldi r20,lo8(0)
 2101 0d68 50E0      		ldi r21,hi8(0)
 2102               	.LVL86:
 2103 0d6a 60E0      		ldi r22,lo8(0)
 2104 0d6c 70E0      		ldi r23,hi8(0)
 2105 0d6e 80E0      		ldi r24,hlo8(0)
 2106 0d70 90E0      		ldi r25,hhi8(0)
 2107               	.LVL87:
 2108 0d72 B22F      		mov r27,r18
 2109               	.LVL88:
 2110 0d74 BA0D      		add r27,r10
 2111 0d76 BA8B      		std Y+18,r27
 2112 0d78 F1E0      		ldi r31,lo8(1)
 2113 0d7a B217      		cp r27,r18
 2114 0d7c 00F0      		brlo .L165
 2115               	.LVL89:
 2116 0d7e F0E0      		ldi r31,lo8(0)
 2117               	.L165:
 2118 0d80 E32F      		mov r30,r19
 2119 0d82 EB0D      		add r30,r11
 2120 0d84 9924      		clr r9
 2121 0d86 9394      		inc r9
 2122 0d88 E317      		cp r30,r19
 2123               	.LVL90:
 2124 0d8a 00F0      		brlo .L166
 2125 0d8c 9924      		clr r9
 2126               	.L166:
 2127 0d8e FE0F      		add r31,r30
 2128 0d90 F98B      		std Y+17,r31
 2129 0d92 F1E0      		ldi r31,lo8(1)
 2130 0d94 A989      		ldd r26,Y+17
 2131 0d96 AE17      		cp r26,r30
 2132 0d98 00F0      		brlo .L167
 2133 0d9a F0E0      		ldi r31,lo8(0)
 2134               	.L167:
 2135 0d9c 9F2A      		or r9,r31
 2136 0d9e E42F      		mov r30,r20
 2137               	.LVL91:
 2138 0da0 EC0D      		add r30,r12
 2139 0da2 B1E0      		ldi r27,lo8(1)
 2140 0da4 E417      		cp r30,r20
 2141               	.LVL92:
 2142 0da6 00F0      		brlo .L168
 2143 0da8 B0E0      		ldi r27,lo8(0)
 2144               	.L168:
 2145 0daa 692C      		mov r6,r9
 2146 0dac 6E0E      		add r6,r30
 2147 0dae F1E0      		ldi r31,lo8(1)
 2148 0db0 6E16      		cp r6,r30
 2149 0db2 00F0      		brlo .L169
 2150 0db4 F0E0      		ldi r31,lo8(0)
 2151               	.L169:
 2152 0db6 BF2B      		or r27,r31
 2153 0db8 E52F      		mov r30,r21
 2154 0dba ED0D      		add r30,r13
 2155 0dbc A1E0      		ldi r26,lo8(1)
 2156 0dbe E517      		cp r30,r21
 2157               	.LVL93:
 2158 0dc0 00F0      		brlo .L170
 2159 0dc2 A0E0      		ldi r26,lo8(0)
 2160               	.L170:
 2161 0dc4 7B2E      		mov r7,r27
 2162 0dc6 7E0E      		add r7,r30
 2163 0dc8 F1E0      		ldi r31,lo8(1)
 2164 0dca 7E16      		cp r7,r30
 2165 0dcc 00F0      		brlo .L171
 2166 0dce F0E0      		ldi r31,lo8(0)
 2167               	.L171:
 2168 0dd0 AF2B      		or r26,r31
 2169 0dd2 E62F      		mov r30,r22
 2170               	.LVL94:
 2171 0dd4 EE0D      		add r30,r14
 2172 0dd6 B1E0      		ldi r27,lo8(1)
 2173 0dd8 E617      		cp r30,r22
 2174               	.LVL95:
 2175 0dda 00F0      		brlo .L172
 2176 0ddc B0E0      		ldi r27,lo8(0)
 2177               	.L172:
 2178 0dde 8A2E      		mov r8,r26
 2179 0de0 8E0E      		add r8,r30
 2180 0de2 F1E0      		ldi r31,lo8(1)
 2181 0de4 8E16      		cp r8,r30
 2182 0de6 00F0      		brlo .L173
 2183 0de8 F0E0      		ldi r31,lo8(0)
 2184               	.L173:
 2185 0dea BF2B      		or r27,r31
 2186 0dec E72F      		mov r30,r23
 2187 0dee EF0D      		add r30,r15
 2188 0df0 A1E0      		ldi r26,lo8(1)
 2189 0df2 E717      		cp r30,r23
 2190               	.LVL96:
 2191 0df4 00F0      		brlo .L174
 2192 0df6 A0E0      		ldi r26,lo8(0)
 2193               	.L174:
 2194 0df8 9B2E      		mov r9,r27
 2195 0dfa 9E0E      		add r9,r30
 2196 0dfc F1E0      		ldi r31,lo8(1)
 2197 0dfe 9E16      		cp r9,r30
 2198 0e00 00F0      		brlo .L175
 2199 0e02 F0E0      		ldi r31,lo8(0)
 2200               	.L175:
 2201 0e04 AF2B      		or r26,r31
 2202 0e06 E82F      		mov r30,r24
 2203               	.LVL97:
 2204 0e08 E00F      		add r30,r16
 2205 0e0a B1E0      		ldi r27,lo8(1)
 2206 0e0c E817      		cp r30,r24
 2207               	.LVL98:
 2208 0e0e 00F0      		brlo .L176
 2209 0e10 B0E0      		ldi r27,lo8(0)
 2210               	.L176:
 2211 0e12 AE0F      		add r26,r30
 2212 0e14 F1E0      		ldi r31,lo8(1)
 2213 0e16 AE17      		cp r26,r30
 2214 0e18 00F0      		brlo .L177
 2215 0e1a F0E0      		ldi r31,lo8(0)
 2216               	.L177:
 2217 0e1c EB2F      		mov r30,r27
 2218 0e1e EF2B      		or r30,r31
 2219 0e20 892F      		mov r24,r25
 2220               	.LVL99:
 2221 0e22 810F      		add r24,r17
 2222 0e24 E80F      		add r30,r24
 2223 0e26 A201      		movw r20,r4
 2224 0e28 9101      		movw r18,r2
 2225               	.LVL100:
 2226 0e2a 60E0      		ldi r22,lo8(0)
 2227 0e2c 70E0      		ldi r23,hi8(0)
 2228 0e2e 80E0      		ldi r24,hlo8(0)
 2229 0e30 90E0      		ldi r25,hhi8(0)
 2230               	.LVL101:
 2231 0e32 9E17      		cp r25,r30
 2232 0e34 00F0      		brlo .L233
 2233 0e36 E917      		cp r30,r25
 2234 0e38 01F4      		brne .L164
 2235 0e3a 8A17      		cp r24,r26
 2236 0e3c 00F0      		brlo .L233
 2237 0e3e A817      		cp r26,r24
 2238 0e40 01F4      		brne .L164
 2239 0e42 7915      		cp r23,r9
 2240               	.LVL102:
 2241 0e44 00F0      		brlo .L233
 2242 0e46 9716      		cp r9,r23
 2243 0e48 01F4      		brne .L164
 2244 0e4a 6815      		cp r22,r8
 2245 0e4c 00F0      		brlo .L233
 2246 0e4e 8616      		cp r8,r22
 2247 0e50 01F4      		brne .L164
 2248 0e52 5715      		cp r21,r7
 2249               	.LVL103:
 2250 0e54 00F0      		brlo .L233
 2251 0e56 7516      		cp r7,r21
 2252 0e58 01F4      		brne .L164
 2253 0e5a 4615      		cp r20,r6
 2254               	.LVL104:
 2255 0e5c 00F0      		brlo .L233
 2256 0e5e 6416      		cp r6,r20
 2257 0e60 01F4      		brne .L164
 2258 0e62 B989      		ldd r27,Y+17
 2259 0e64 3B17      		cp r19,r27
 2260               	.LVL105:
 2261 0e66 00F0      		brlo .L233
 2262 0e68 B317      		cp r27,r19
 2263 0e6a 01F4      		brne .L164
 2264 0e6c EA89      		ldd r30,Y+18
 2265 0e6e 2E16      		cp r2,r30
 2266 0e70 00F4      		brsh .L164
 2267               	.LVL106:
 2268               	.L233:
 2269               	.LM78:
 2270 0e72 9101      		movw r18,r2
 2271 0e74 2A19      		sub r18,r10
 2272 0e76 3B09      		sbc r19,r11
 2273 0e78 388B      		std Y+16,r19
 2274 0e7a 2F87      		std Y+15,r18
 2275               	.LVL107:
 2276               	.LM79:
 2277 0e7c 232B      		or r18,r19
 2278 0e7e 01F4      		brne .+2
 2279 0e80 00C0      		rjmp .L179
 2280               	.L164:
 2281               	.LM80:
 2282 0e82 AF89      		ldd r26,Y+23
 2283 0e84 B88D      		ldd r27,Y+24
 2284 0e86 ED91      		ld r30,X+
 2285 0e88 FC91      		ld r31,X
 2286 0e8a 1197      		sbiw r26,1
 2287 0e8c 208D      		ldd r18,Z+24
 2288 0e8e 318D      		ldd r19,Z+25
 2289 0e90 3C87      		std Y+12,r19
 2290 0e92 2B87      		std Y+11,r18
 2291               	.LVL108:
 2292               	.LM81:
 2293 0e94 DB96      		adiw r26,59
 2294 0e96 8D91      		ld r24,X+
 2295 0e98 9D91      		ld r25,X+
 2296 0e9a 0D90      		ld __tmp_reg__,X+
 2297 0e9c BC91      		ld r27,X
 2298 0e9e A02D      		mov r26,__tmp_reg__
 2299 0ea0 8F83      		std Y+7,r24
 2300 0ea2 9887      		std Y+8,r25
 2301 0ea4 A987      		std Y+9,r26
 2302 0ea6 BA87      		std Y+10,r27
 2303               	.LVL109:
 2304               	.LM82:
 2305 0ea8 0097      		sbiw r24,0
 2306 0eaa A105      		cpc r26,__zero_reg__
 2307 0eac B105      		cpc r27,__zero_reg__
 2308 0eae 01F0      		breq .+2
 2309 0eb0 00C0      		rjmp .L180
 2310               	.LM83:
 2311 0eb2 AF89      		ldd r26,Y+23
 2312 0eb4 B88D      		ldd r27,Y+24
 2313 0eb6 9396      		adiw r26,35
 2314 0eb8 2D91      		ld r18,X+
 2315 0eba 3D91      		ld r19,X+
 2316 0ebc 4D91      		ld r20,X+
 2317 0ebe 5C91      		ld r21,X
 2318 0ec0 9697      		sbiw r26,35+3
 2319 0ec2 2F83      		std Y+7,r18
 2320 0ec4 3887      		std Y+8,r19
 2321 0ec6 4987      		std Y+9,r20
 2322 0ec8 5A87      		std Y+10,r21
 2323               	.LVL110:
 2324               	.LM84:
 2325 0eca 2115      		cp r18,__zero_reg__
 2326 0ecc 3105      		cpc r19,__zero_reg__
 2327 0ece 4105      		cpc r20,__zero_reg__
 2328 0ed0 5105      		cpc r21,__zero_reg__
 2329 0ed2 01F4      		brne .L181
 2330               	.LM85:
 2331 0ed4 8A2D      		mov r24,r10
 2332 0ed6 8B29      		or r24,r11
 2333 0ed8 8C29      		or r24,r12
 2334 0eda 8D29      		or r24,r13
 2335 0edc 8E29      		or r24,r14
 2336 0ede 8F29      		or r24,r15
 2337 0ee0 802B      		or r24,r16
 2338 0ee2 812B      		or r24,r17
 2339 0ee4 01F4      		brne .+2
 2340 0ee6 00C0      		rjmp .L179
 2341 0ee8 00C0      		rjmp .L163
 2342               	.L181:
 2343               	.LM86:
 2344 0eea 8A2D      		mov r24,r10
 2345 0eec 8B29      		or r24,r11
 2346 0eee 8C29      		or r24,r12
 2347 0ef0 8D29      		or r24,r13
 2348 0ef2 8E29      		or r24,r14
 2349 0ef4 8F29      		or r24,r15
 2350 0ef6 802B      		or r24,r16
 2351 0ef8 812B      		or r24,r17
 2352 0efa 01F0      		breq .L180
 2353               	.LBB49:
 2354               	.LM87:
 2355 0efc 3501      		movw r6,r10
 2356 0efe 4601      		movw r8,r12
 2357               	.LVL111:
 2358               	.LM88:
 2359 0f00 EB85      		ldd r30,Y+11
 2360 0f02 FC85      		ldd r31,Y+12
 2361 0f04 1F01      		movw r2,r30
 2362 0f06 4424      		clr r4
 2363 0f08 5524      		clr r5
 2364               	.LM89:
 2365 0f0a 2227      		clr r18
 2366 0f0c 3327      		clr r19
 2367 0f0e A901      		movw r20,r18
 2368 0f10 2219      		sub r18,r2
 2369 0f12 3309      		sbc r19,r3
 2370 0f14 4409      		sbc r20,r4
 2371 0f16 5509      		sbc r21,r5
 2372 0f18 2B8B      		std Y+19,r18
 2373 0f1a 3C8B      		std Y+20,r19
 2374 0f1c 4D8B      		std Y+21,r20
 2375 0f1e 5E8B      		std Y+22,r21
 2376 0f20 00C0      		rjmp .L182
 2377               	.L183:
 2378               	.LM90:
 2379 0f22 AF89      		ldd r26,Y+23
 2380 0f24 B88D      		ldd r27,Y+24
 2381 0f26 8D91      		ld r24,X+
 2382 0f28 9C91      		ld r25,X
 2383 0f2a 4F81      		ldd r20,Y+7
 2384 0f2c 5885      		ldd r21,Y+8
 2385 0f2e 6985      		ldd r22,Y+9
 2386 0f30 7A85      		ldd r23,Y+10
 2387               	.LVL112:
 2388 0f32 0E94 0000 		call fat_get_next_cluster
 2389               	.LVL113:
 2390 0f36 6F83      		std Y+7,r22
 2391 0f38 7887      		std Y+8,r23
 2392 0f3a 8987      		std Y+9,r24
 2393 0f3c 9A87      		std Y+10,r25
 2394               	.LVL114:
 2395               	.LM91:
 2396 0f3e 6115      		cp r22,__zero_reg__
 2397 0f40 7105      		cpc r23,__zero_reg__
 2398 0f42 8105      		cpc r24,__zero_reg__
 2399 0f44 9105      		cpc r25,__zero_reg__
 2400 0f46 01F4      		brne .+2
 2401 0f48 00C0      		rjmp .L163
 2402 0f4a 2B89      		ldd r18,Y+19
 2403 0f4c 3C89      		ldd r19,Y+20
 2404 0f4e 4D89      		ldd r20,Y+21
 2405 0f50 5E89      		ldd r21,Y+22
 2406 0f52 620E      		add r6,r18
 2407 0f54 731E      		adc r7,r19
 2408 0f56 841E      		adc r8,r20
 2409 0f58 951E      		adc r9,r21
 2410               	.LVL115:
 2411               	.L182:
 2412               	.LM92:
 2413 0f5a 6214      		cp r6,r2
 2414 0f5c 7304      		cpc r7,r3
 2415 0f5e 8404      		cpc r8,r4
 2416 0f60 9504      		cpc r9,r5
 2417 0f62 00F4      		brsh .L183
 2418               	.L180:
 2419               	.LBE49:
 2420               	.LM93:
 2421 0f64 4B85      		ldd r20,Y+11
 2422 0f66 5C85      		ldd r21,Y+12
 2423               	.LVL116:
 2424 0f68 4150      		subi r20,lo8(-(-1))
 2425 0f6a 5040      		sbci r21,hi8(-(-1))
 2426 0f6c 5C87      		std Y+12,r21
 2427 0f6e 4B87      		std Y+11,r20
 2428               	.LVL117:
 2429 0f70 4A21      		and r20,r10
 2430 0f72 5B21      		and r21,r11
 2431 0f74 5C83      		std Y+4,r21
 2432 0f76 4B83      		std Y+3,r20
 2433               	.LVL118:
 2434 0f78 8B85      		ldd r24,Y+11
 2435 0f7a 9C85      		ldd r25,Y+12
 2436 0f7c 0196      		adiw r24,1
 2437 0f7e 9C87      		std Y+12,r25
 2438 0f80 8B87      		std Y+11,r24
 2439               	.LVL119:
 2440 0f82 AF85      		ldd r26,Y+15
 2441 0f84 B889      		ldd r27,Y+16
 2442 0f86 BE83      		std Y+6,r27
 2443 0f88 AD83      		std Y+5,r26
 2444               	.LVL120:
 2445               	.L231:
 2446               	.LBB50:
 2447               	.LM94:
 2448 0f8a EF89      		ldd r30,Y+23
 2449 0f8c F88D      		ldd r31,Y+24
 2450 0f8e 0190      		ld __tmp_reg__,Z+
 2451 0f90 F081      		ld r31,Z
 2452 0f92 E02D      		mov r30,__tmp_reg__
 2453 0f94 FA83      		std Y+2,r31
 2454 0f96 E983      		std Y+1,r30
 2455               	.LBB51:
 2456               	.LBB52:
 2457               	.LM95:
 2458 0f98 3097      		sbiw r30,0
 2459 0f9a 01F4      		brne .+2
 2460 0f9c 00C0      		rjmp .L184
 2461 0f9e 2F81      		ldd r18,Y+7
 2462 0fa0 3885      		ldd r19,Y+8
 2463 0fa2 4985      		ldd r20,Y+9
 2464 0fa4 5A85      		ldd r21,Y+10
 2465 0fa6 2230      		cpi r18,lo8(2)
 2466 0fa8 3105      		cpc r19,__zero_reg__
 2467 0faa 4105      		cpc r20,__zero_reg__
 2468 0fac 5105      		cpc r21,__zero_reg__
 2469 0fae 00F4      		brsh .+2
 2470 0fb0 00C0      		rjmp .L184
 2471               	.LM96:
 2472 0fb2 2250      		subi r18,lo8(-(-2))
 2473 0fb4 3040      		sbci r19,hi8(-(-2))
 2474 0fb6 4040      		sbci r20,hlo8(-(-2))
 2475 0fb8 5040      		sbci r21,hhi8(-(-2))
 2476 0fba 5901      		movw r10,r18
 2477 0fbc 6A01      		movw r12,r20
 2478 0fbe 2E5F      		subi r18,lo8(-(2))
 2479 0fc0 3F4F      		sbci r19,hi8(-(2))
 2480 0fc2 4F4F      		sbci r20,hlo8(-(2))
 2481 0fc4 5F4F      		sbci r21,hhi8(-(2))
 2482 0fc6 2F83      		std Y+7,r18
 2483 0fc8 3887      		std Y+8,r19
 2484 0fca 4987      		std Y+9,r20
 2485 0fcc 5A87      		std Y+10,r21
 2486               	.LVL121:
 2487 0fce 208C      		ldd r2,Z+24
 2488 0fd0 318C      		ldd r3,Z+25
 2489 0fd2 9501      		movw r18,r10
 2490 0fd4 A601      		movw r20,r12
 2491               	.LVL122:
 2492 0fd6 60E0      		ldi r22,lo8(0)
 2493               	.LVL123:
 2494 0fd8 70E0      		ldi r23,lo8(0)
 2495               	.LVL124:
 2496 0fda 80E0      		ldi r24,lo8(0)
 2497 0fdc 90E0      		ldi r25,lo8(0)
 2498               	.LVL125:
 2499 0fde 5101      		movw r10,r2
 2500 0fe0 CC24      		clr r12
 2501 0fe2 DD24      		clr r13
 2502 0fe4 EE24      		clr r14
 2503 0fe6 FF24      		clr r15
 2504 0fe8 00E0      		ldi r16,lo8(0)
 2505 0fea 10E0      		ldi r17,lo8(0)
 2506 0fec 0E94 0000 		call __muldi3
 2507               	.LVL126:
 2508 0ff0 E981      		ldd r30,Y+1
 2509 0ff2 FA81      		ldd r31,Y+2
 2510 0ff4 A28D      		ldd r26,Z+26
 2511 0ff6 F38C      		ldd r15,Z+27
 2512 0ff8 B48D      		ldd r27,Z+28
 2513 0ffa 058D      		ldd r16,Z+29
 2514 0ffc E68C      		ldd r14,Z+30
 2515 0ffe D78C      		ldd r13,Z+31
 2516 1000 C0A0      		ldd r12,Z+32
 2517 1002 11A1      		ldd r17,Z+33
 2518 1004 A20F      		add r26,r18
 2519 1006 F1E0      		ldi r31,lo8(1)
 2520 1008 A217      		cp r26,r18
 2521 100a 00F0      		brlo .L185
 2522 100c F0E0      		ldi r31,lo8(0)
 2523               	.L185:
 2524 100e 232F      		mov r18,r19
 2525 1010 2F0D      		add r18,r15
 2526 1012 E1E0      		ldi r30,lo8(1)
 2527 1014 2317      		cp r18,r19
 2528 1016 00F0      		brlo .L186
 2529 1018 E0E0      		ldi r30,lo8(0)
 2530               	.L186:
 2531 101a FF2E      		mov r15,r31
 2532 101c F20E      		add r15,r18
 2533 101e 31E0      		ldi r19,lo8(1)
 2534 1020 F216      		cp r15,r18
 2535 1022 00F0      		brlo .L187
 2536 1024 30E0      		ldi r19,lo8(0)
 2537               	.L187:
 2538 1026 E32B      		or r30,r19
 2539 1028 242F      		mov r18,r20
 2540 102a 2B0F      		add r18,r27
 2541 102c F1E0      		ldi r31,lo8(1)
 2542 102e 2417      		cp r18,r20
 2543 1030 00F0      		brlo .L188
 2544 1032 F0E0      		ldi r31,lo8(0)
 2545               	.L188:
 2546 1034 BE2F      		mov r27,r30
 2547 1036 B20F      		add r27,r18
 2548 1038 31E0      		ldi r19,lo8(1)
 2549 103a B217      		cp r27,r18
 2550 103c 00F0      		brlo .L189
 2551 103e 30E0      		ldi r19,lo8(0)
 2552               	.L189:
 2553 1040 F32B      		or r31,r19
 2554 1042 252F      		mov r18,r21
 2555 1044 200F      		add r18,r16
 2556 1046 41E0      		ldi r20,lo8(1)
 2557 1048 2517      		cp r18,r21
 2558 104a 00F0      		brlo .L190
 2559 104c 40E0      		ldi r20,lo8(0)
 2560               	.L190:
 2561 104e F20F      		add r31,r18
 2562 1050 31E0      		ldi r19,lo8(1)
 2563 1052 F217      		cp r31,r18
 2564 1054 00F0      		brlo .L191
 2565 1056 30E0      		ldi r19,lo8(0)
 2566               	.L191:
 2567 1058 432B      		or r20,r19
 2568 105a 262F      		mov r18,r22
 2569 105c 2E0D      		add r18,r14
 2570 105e 51E0      		ldi r21,lo8(1)
 2571 1060 2617      		cp r18,r22
 2572 1062 00F0      		brlo .L192
 2573 1064 50E0      		ldi r21,lo8(0)
 2574               	.L192:
 2575 1066 E42F      		mov r30,r20
 2576 1068 E20F      		add r30,r18
 2577 106a 31E0      		ldi r19,lo8(1)
 2578 106c E217      		cp r30,r18
 2579 106e 00F0      		brlo .L193
 2580 1070 30E0      		ldi r19,lo8(0)
 2581               	.L193:
 2582 1072 532B      		or r21,r19
 2583 1074 272F      		mov r18,r23
 2584 1076 2D0D      		add r18,r13
 2585 1078 41E0      		ldi r20,lo8(1)
 2586 107a 2717      		cp r18,r23
 2587 107c 00F0      		brlo .L194
 2588 107e 40E0      		ldi r20,lo8(0)
 2589               	.L194:
 2590 1080 520F      		add r21,r18
 2591 1082 31E0      		ldi r19,lo8(1)
 2592 1084 5217      		cp r21,r18
 2593 1086 00F0      		brlo .L195
 2594 1088 30E0      		ldi r19,lo8(0)
 2595               	.L195:
 2596 108a 432B      		or r20,r19
 2597 108c 282F      		mov r18,r24
 2598 108e 2C0D      		add r18,r12
 2599 1090 31E0      		ldi r19,lo8(1)
 2600 1092 2817      		cp r18,r24
 2601 1094 00F0      		brlo .L196
 2602 1096 30E0      		ldi r19,lo8(0)
 2603               	.L196:
 2604 1098 420F      		add r20,r18
 2605 109a 81E0      		ldi r24,lo8(1)
 2606 109c 4217      		cp r20,r18
 2607 109e 00F0      		brlo .L197
 2608 10a0 80E0      		ldi r24,lo8(0)
 2609               	.L197:
 2610 10a2 732E      		mov r7,r19
 2611 10a4 782A      		or r7,r24
 2612 10a6 190F      		add r17,r25
 2613 10a8 2A2F      		mov r18,r26
 2614 10aa 9F2D      		mov r25,r15
 2615 10ac 6B2F      		mov r22,r27
 2616 10ae 7F2F      		mov r23,r31
 2617 10b0 AE2F      		mov r26,r30
 2618 10b2 B52F      		mov r27,r21
 2619 10b4 342E      		mov r3,r20
 2620 10b6 710E      		add r7,r17
 2621 10b8 00C0      		rjmp .L198
 2622               	.LVL127:
 2623               	.L184:
 2624 10ba 20E0      		ldi r18,lo8(0)
 2625 10bc 90E0      		ldi r25,lo8(0)
 2626               	.LVL128:
 2627 10be 60E0      		ldi r22,lo8(0)
 2628               	.LVL129:
 2629 10c0 70E0      		ldi r23,lo8(0)
 2630               	.LVL130:
 2631 10c2 A0E0      		ldi r26,lo8(0)
 2632 10c4 B0E0      		ldi r27,lo8(0)
 2633 10c6 3324      		clr r3
 2634 10c8 7724      		clr r7
 2635               	.L198:
 2636               	.LBE52:
 2637               	.LBE51:
 2638               	.LM97:
 2639 10ca 8B84      		ldd r8,Y+11
 2640 10cc 9C84      		ldd r9,Y+12
 2641               	.LVL131:
 2642 10ce 4B81      		ldd r20,Y+3
 2643 10d0 5C81      		ldd r21,Y+4
 2644               	.LVL132:
 2645 10d2 841A      		sub r8,r20
 2646 10d4 950A      		sbc r9,r21
 2647 10d6 ED81      		ldd r30,Y+5
 2648 10d8 FE81      		ldd r31,Y+6
 2649 10da E815      		cp r30,r8
 2650 10dc F905      		cpc r31,r9
 2651 10de 00F4      		brsh .L199
 2652 10e0 4F01      		movw r8,r30
 2653               	.L199:
 2654               	.LM98:
 2655 10e2 E981      		ldd r30,Y+1
 2656 10e4 FA81      		ldd r31,Y+2
 2657 10e6 4080      		ld r4,Z
 2658 10e8 5180      		ldd r5,Z+1
 2659 10ea 4B81      		ldd r20,Y+3
 2660 10ec 5C81      		ldd r21,Y+4
 2661 10ee 5A01      		movw r10,r20
 2662               	.LVL133:
 2663 10f0 CC24      		clr r12
 2664 10f2 DD24      		clr r13
 2665               	.LVL134:
 2666 10f4 EE24      		clr r14
 2667 10f6 FF24      		clr r15
 2668 10f8 8701      		movw r16,r14
 2669               	.LVL135:
 2670 10fa 622E      		mov r6,r18
 2671               	.LVL136:
 2672 10fc 640E      		add r6,r20
 2673 10fe 31E0      		ldi r19,lo8(1)
 2674               	.LVL137:
 2675 1100 6216      		cp r6,r18
 2676 1102 00F0      		brlo .L200
 2677               	.LVL138:
 2678 1104 30E0      		ldi r19,lo8(0)
 2679               	.L200:
 2680 1106 892F      		mov r24,r25
 2681 1108 8B0D      		add r24,r11
 2682               	.LVL139:
 2683 110a 41E0      		ldi r20,lo8(1)
 2684               	.LVL140:
 2685 110c 8917      		cp r24,r25
 2686 110e 00F0      		brlo .L201
 2687 1110 40E0      		ldi r20,lo8(0)
 2688               	.L201:
 2689 1112 380F      		add r19,r24
 2690 1114 91E0      		ldi r25,lo8(1)
 2691 1116 3817      		cp r19,r24
 2692 1118 00F0      		brlo .L202
 2693 111a 90E0      		ldi r25,lo8(0)
 2694               	.L202:
 2695 111c 492B      		or r20,r25
 2696 111e 862F      		mov r24,r22
 2697 1120 8C0D      		add r24,r12
 2698 1122 51E0      		ldi r21,lo8(1)
 2699               	.LVL141:
 2700 1124 8617      		cp r24,r22
 2701 1126 00F0      		brlo .L203
 2702 1128 50E0      		ldi r21,lo8(0)
 2703               	.L203:
 2704 112a 480F      		add r20,r24
 2705 112c 91E0      		ldi r25,lo8(1)
 2706 112e 4817      		cp r20,r24
 2707 1130 00F0      		brlo .L204
 2708 1132 90E0      		ldi r25,lo8(0)
 2709               	.L204:
 2710 1134 592B      		or r21,r25
 2711 1136 872F      		mov r24,r23
 2712 1138 8D0D      		add r24,r13
 2713               	.LVL142:
 2714 113a 61E0      		ldi r22,lo8(1)
 2715 113c 8717      		cp r24,r23
 2716 113e 00F0      		brlo .L205
 2717 1140 60E0      		ldi r22,lo8(0)
 2718               	.L205:
 2719 1142 580F      		add r21,r24
 2720 1144 91E0      		ldi r25,lo8(1)
 2721 1146 5817      		cp r21,r24
 2722 1148 00F0      		brlo .L206
 2723 114a 90E0      		ldi r25,lo8(0)
 2724               	.L206:
 2725 114c 692B      		or r22,r25
 2726 114e 8A2F      		mov r24,r26
 2727 1150 8E0D      		add r24,r14
 2728 1152 71E0      		ldi r23,lo8(1)
 2729 1154 8A17      		cp r24,r26
 2730 1156 00F0      		brlo .L207
 2731 1158 70E0      		ldi r23,lo8(0)
 2732               	.L207:
 2733 115a 680F      		add r22,r24
 2734 115c 91E0      		ldi r25,lo8(1)
 2735 115e 6817      		cp r22,r24
 2736 1160 00F0      		brlo .L208
 2737 1162 90E0      		ldi r25,lo8(0)
 2738               	.L208:
 2739 1164 792B      		or r23,r25
 2740 1166 9B2F      		mov r25,r27
 2741 1168 9F0D      		add r25,r15
 2742               	.LVL143:
 2743 116a 81E0      		ldi r24,lo8(1)
 2744 116c 9B17      		cp r25,r27
 2745 116e 00F0      		brlo .L209
 2746 1170 80E0      		ldi r24,lo8(0)
 2747               	.L209:
 2748 1172 790F      		add r23,r25
 2749 1174 A1E0      		ldi r26,lo8(1)
 2750 1176 7917      		cp r23,r25
 2751 1178 00F0      		brlo .L210
 2752 117a A0E0      		ldi r26,lo8(0)
 2753               	.L210:
 2754 117c 8A2B      		or r24,r26
 2755 117e A32D      		mov r26,r3
 2756 1180 A00F      		add r26,r16
 2757               	.LVL144:
 2758 1182 91E0      		ldi r25,lo8(1)
 2759 1184 A315      		cp r26,r3
 2760 1186 00F0      		brlo .L211
 2761 1188 90E0      		ldi r25,lo8(0)
 2762               	.L211:
 2763 118a 8A0F      		add r24,r26
 2764 118c B1E0      		ldi r27,lo8(1)
 2765 118e 8A17      		cp r24,r26
 2766 1190 00F0      		brlo .L212
 2767 1192 B0E0      		ldi r27,lo8(0)
 2768               	.L212:
 2769 1194 9B2B      		or r25,r27
 2770 1196 710E      		add r7,r17
 2771               	.LVL145:
 2772 1198 D201      		movw r26,r4
 2773 119a ED91      		ld r30,X+
 2774 119c FC91      		ld r31,X
 2775 119e 262D      		mov r18,r6
 2776 11a0 970D      		add r25,r7
 2777 11a2 0D85      		ldd r16,Y+13
 2778 11a4 1E85      		ldd r17,Y+14
 2779               	.LVL146:
 2780 11a6 7401      		movw r14,r8
 2781               	.LVL147:
 2782 11a8 0995      		icall
 2783 11aa 8823      		tst r24
 2784 11ac 01F4      		brne .+2
 2785 11ae 00C0      		rjmp .L234
 2786               	.L213:
 2787               	.LM99:
 2788 11b0 2D81      		ldd r18,Y+5
 2789 11b2 3E81      		ldd r19,Y+6
 2790 11b4 2819      		sub r18,r8
 2791 11b6 3909      		sbc r19,r9
 2792 11b8 3E83      		std Y+6,r19
 2793 11ba 2D83      		std Y+5,r18
 2794               	.LVL148:
 2795               	.LM100:
 2796 11bc 9401      		movw r18,r8
 2797 11be 40E0      		ldi r20,lo8(0)
 2798 11c0 50E0      		ldi r21,hi8(0)
 2799               	.LVL149:
 2800 11c2 60E0      		ldi r22,lo8(0)
 2801 11c4 70E0      		ldi r23,hi8(0)
 2802 11c6 80E0      		ldi r24,hlo8(0)
 2803 11c8 90E0      		ldi r25,hhi8(0)
 2804               	.LVL150:
 2805 11ca AF89      		ldd r26,Y+23
 2806 11cc B88D      		ldd r27,Y+24
 2807 11ce D396      		adiw r26,51
 2808 11d0 1C91      		ld r17,X
 2809 11d2 D397      		sbiw r26,51
 2810               	.LVL151:
 2811 11d4 D496      		adiw r26,52
 2812 11d6 DC90      		ld r13,X
 2813 11d8 D497      		sbiw r26,52
 2814               	.LVL152:
 2815 11da D596      		adiw r26,53
 2816 11dc BC91      		ld r27,X
 2817 11de EF89      		ldd r30,Y+23
 2818 11e0 F88D      		ldd r31,Y+24
 2819 11e2 06A9      		ldd r16,Z+54
 2820 11e4 E7A8      		ldd r14,Z+55
 2821 11e6 A0AC      		ldd r10,Z+56
 2822               	.LVL153:
 2823 11e8 71AC      		ldd r7,Z+57
 2824 11ea F2AC      		ldd r15,Z+58
 2825               	.LVL154:
 2826 11ec 180D      		add r17,r8
 2827 11ee F1E0      		ldi r31,lo8(1)
 2828 11f0 1815      		cp r17,r8
 2829 11f2 00F0      		brlo .L215
 2830 11f4 F0E0      		ldi r31,lo8(0)
 2831               	.L215:
 2832 11f6 ED2D      		mov r30,r13
 2833 11f8 E30F      		add r30,r19
 2834               	.LVL155:
 2835 11fa A1E0      		ldi r26,lo8(1)
 2836 11fc E317      		cp r30,r19
 2837 11fe 00F0      		brlo .L216
 2838 1200 A0E0      		ldi r26,lo8(0)
 2839               	.L216:
 2840 1202 BF2E      		mov r11,r31
 2841               	.LVL156:
 2842 1204 BE0E      		add r11,r30
 2843 1206 F1E0      		ldi r31,lo8(1)
 2844 1208 BE16      		cp r11,r30
 2845 120a 00F0      		brlo .L217
 2846 120c F0E0      		ldi r31,lo8(0)
 2847               	.L217:
 2848 120e AF2B      		or r26,r31
 2849 1210 E42F      		mov r30,r20
 2850               	.LVL157:
 2851 1212 EB0F      		add r30,r27
 2852 1214 B1E0      		ldi r27,lo8(1)
 2853 1216 E417      		cp r30,r20
 2854               	.LVL158:
 2855 1218 00F0      		brlo .L218
 2856 121a B0E0      		ldi r27,lo8(0)
 2857               	.L218:
 2858 121c CA2E      		mov r12,r26
 2859               	.LVL159:
 2860 121e CE0E      		add r12,r30
 2861 1220 F1E0      		ldi r31,lo8(1)
 2862 1222 CE16      		cp r12,r30
 2863 1224 00F0      		brlo .L219
 2864 1226 F0E0      		ldi r31,lo8(0)
 2865               	.L219:
 2866 1228 BF2B      		or r27,r31
 2867 122a E52F      		mov r30,r21
 2868 122c E00F      		add r30,r16
 2869 122e A1E0      		ldi r26,lo8(1)
 2870 1230 E517      		cp r30,r21
 2871               	.LVL160:
 2872 1232 00F0      		brlo .L220
 2873 1234 A0E0      		ldi r26,lo8(0)
 2874               	.L220:
 2875 1236 DB2E      		mov r13,r27
 2876 1238 DE0E      		add r13,r30
 2877 123a F1E0      		ldi r31,lo8(1)
 2878 123c DE16      		cp r13,r30
 2879 123e 00F0      		brlo .L221
 2880 1240 F0E0      		ldi r31,lo8(0)
 2881               	.L221:
 2882 1242 AF2B      		or r26,r31
 2883 1244 E62F      		mov r30,r22
 2884               	.LVL161:
 2885 1246 EE0D      		add r30,r14
 2886 1248 B1E0      		ldi r27,lo8(1)
 2887 124a E617      		cp r30,r22
 2888               	.LVL162:
 2889 124c 00F0      		brlo .L222
 2890 124e B0E0      		ldi r27,lo8(0)
 2891               	.L222:
 2892 1250 EA2E      		mov r14,r26
 2893 1252 EE0E      		add r14,r30
 2894 1254 F1E0      		ldi r31,lo8(1)
 2895 1256 EE16      		cp r14,r30
 2896 1258 00F0      		brlo .L223
 2897 125a F0E0      		ldi r31,lo8(0)
 2898               	.L223:
 2899 125c BF2B      		or r27,r31
 2900 125e E72F      		mov r30,r23
 2901 1260 EA0D      		add r30,r10
 2902 1262 A1E0      		ldi r26,lo8(1)
 2903 1264 E717      		cp r30,r23
 2904               	.LVL163:
 2905 1266 00F0      		brlo .L224
 2906 1268 A0E0      		ldi r26,lo8(0)
 2907               	.L224:
 2908 126a 0B2F      		mov r16,r27
 2909 126c 0E0F      		add r16,r30
 2910 126e F1E0      		ldi r31,lo8(1)
 2911 1270 0E17      		cp r16,r30
 2912 1272 00F0      		brlo .L225
 2913 1274 F0E0      		ldi r31,lo8(0)
 2914               	.L225:
 2915 1276 AF2B      		or r26,r31
 2916 1278 E82F      		mov r30,r24
 2917 127a E70D      		add r30,r7
 2918 127c F1E0      		ldi r31,lo8(1)
 2919 127e E817      		cp r30,r24
 2920               	.LVL164:
 2921 1280 00F0      		brlo .L226
 2922 1282 F0E0      		ldi r31,lo8(0)
 2923               	.L226:
 2924 1284 AA2E      		mov r10,r26
 2925 1286 AE0E      		add r10,r30
 2926 1288 A1E0      		ldi r26,lo8(1)
 2927 128a AE16      		cp r10,r30
 2928 128c 00F0      		brlo .L227
 2929 128e A0E0      		ldi r26,lo8(0)
 2930               	.L227:
 2931 1290 FA2B      		or r31,r26
 2932 1292 F90E      		add r15,r25
 2933               	.LVL165:
 2934 1294 FF0D      		add r31,r15
 2935 1296 AF89      		ldd r26,Y+23
 2936 1298 B88D      		ldd r27,Y+24
 2937 129a D396      		adiw r26,51
 2938 129c 1C93      		st X,r17
 2939 129e D397      		sbiw r26,51
 2940 12a0 D496      		adiw r26,52
 2941 12a2 BC92      		st X,r11
 2942 12a4 D497      		sbiw r26,52
 2943 12a6 D596      		adiw r26,53
 2944 12a8 CC92      		st X,r12
 2945 12aa D597      		sbiw r26,53
 2946 12ac D696      		adiw r26,54
 2947 12ae DC92      		st X,r13
 2948 12b0 D697      		sbiw r26,54
 2949 12b2 D796      		adiw r26,55
 2950 12b4 EC92      		st X,r14
 2951 12b6 D797      		sbiw r26,55
 2952 12b8 D896      		adiw r26,56
 2953 12ba 0C93      		st X,r16
 2954 12bc D897      		sbiw r26,56
 2955 12be D996      		adiw r26,57
 2956 12c0 AC92      		st X,r10
 2957 12c2 D997      		sbiw r26,57
 2958 12c4 DA96      		adiw r26,58
 2959 12c6 FC93      		st X,r31
 2960 12c8 DA97      		sbiw r26,58
 2961               	.LM101:
 2962 12ca 8B81      		ldd r24,Y+3
 2963 12cc 9C81      		ldd r25,Y+4
 2964               	.LVL166:
 2965 12ce 880D      		add r24,r8
 2966 12d0 991D      		adc r25,r9
 2967 12d2 EB85      		ldd r30,Y+11
 2968 12d4 FC85      		ldd r31,Y+12
 2969 12d6 8E17      		cp r24,r30
 2970 12d8 9F07      		cpc r25,r31
 2971 12da 00F0      		brlo .L228
 2972               	.LM102:
 2973 12dc 8D91      		ld r24,X+
 2974 12de 9C91      		ld r25,X
 2975 12e0 4F81      		ldd r20,Y+7
 2976 12e2 5885      		ldd r21,Y+8
 2977 12e4 6985      		ldd r22,Y+9
 2978 12e6 7A85      		ldd r23,Y+10
 2979               	.LVL167:
 2980 12e8 0E94 0000 		call fat_get_next_cluster
 2981               	.LVL168:
 2982 12ec 6F83      		std Y+7,r22
 2983 12ee 7887      		std Y+8,r23
 2984 12f0 8987      		std Y+9,r24
 2985 12f2 9A87      		std Y+10,r25
 2986               	.LVL169:
 2987 12f4 6115      		cp r22,__zero_reg__
 2988 12f6 7105      		cpc r23,__zero_reg__
 2989 12f8 8105      		cpc r24,__zero_reg__
 2990 12fa 9105      		cpc r25,__zero_reg__
 2991 12fc 01F4      		brne .L229
 2992               	.LM103:
 2993 12fe AF89      		ldd r26,Y+23
 2994 1300 B88D      		ldd r27,Y+24
 2995 1302 DB96      		adiw r26,59
 2996 1304 1D92      		st X+,__zero_reg__
 2997 1306 1D92      		st X+,__zero_reg__
 2998 1308 1D92      		st X+,__zero_reg__
 2999 130a 1C92      		st X,__zero_reg__
 3000 130c DE97      		sbiw r26,59+3
 3001               	.LVL170:
 3002               	.L234:
 3003               	.LM104:
 3004 130e 4F85      		ldd r20,Y+15
 3005 1310 5889      		ldd r21,Y+16
 3006 1312 ED81      		ldd r30,Y+5
 3007 1314 FE81      		ldd r31,Y+6
 3008 1316 4E1B      		sub r20,r30
 3009 1318 5F0B      		sbc r21,r31
 3010 131a 00C0      		rjmp .L214
 3011               	.LVL171:
 3012               	.L229:
 3013 131c 1C82      		std Y+4,__zero_reg__
 3014 131e 1B82      		std Y+3,__zero_reg__
 3015               	.LVL172:
 3016               	.L228:
 3017               	.LM105:
 3018 1320 2F81      		ldd r18,Y+7
 3019 1322 3885      		ldd r19,Y+8
 3020 1324 4985      		ldd r20,Y+9
 3021 1326 5A85      		ldd r21,Y+10
 3022 1328 AF89      		ldd r26,Y+23
 3023 132a B88D      		ldd r27,Y+24
 3024 132c DB96      		adiw r26,59
 3025 132e 2D93      		st X+,r18
 3026 1330 3D93      		st X+,r19
 3027 1332 4D93      		st X+,r20
 3028 1334 5C93      		st X,r21
 3029 1336 DE97      		sbiw r26,59+3
 3030               	.LBE50:
 3031               	.LM106:
 3032 1338 ED81      		ldd r30,Y+5
 3033 133a FE81      		ldd r31,Y+6
 3034 133c EF2B      		or r30,r31
 3035 133e 01F0      		breq .L230
 3036               	.LBB53:
 3037               	.LM107:
 3038 1340 2D85      		ldd r18,Y+13
 3039 1342 3E85      		ldd r19,Y+14
 3040 1344 280D      		add r18,r8
 3041 1346 391D      		adc r19,r9
 3042 1348 3E87      		std Y+14,r19
 3043 134a 2D87      		std Y+13,r18
 3044               	.LVL173:
 3045 134c 00C0      		rjmp .L231
 3046               	.L230:
 3047               	.LBE53:
 3048               	.LM108:
 3049 134e 4F85      		ldd r20,Y+15
 3050 1350 5889      		ldd r21,Y+16
 3051               	.LVL174:
 3052 1352 00C0      		rjmp .L214
 3053               	.LVL175:
 3054               	.L163:
 3055 1354 4FEF      		ldi r20,lo8(-1)
 3056 1356 5FEF      		ldi r21,hi8(-1)
 3057               	.LVL176:
 3058 1358 00C0      		rjmp .L214
 3059               	.LVL177:
 3060               	.L179:
 3061 135a 40E0      		ldi r20,lo8(0)
 3062 135c 50E0      		ldi r21,hi8(0)
 3063               	.LVL178:
 3064               	.L214:
 3065               	.LM109:
 3066 135e CA01      		movw r24,r20
 3067               	/* epilogue start */
 3068 1360 6896      		adiw r28,24
 3069 1362 0FB6      		in __tmp_reg__,__SREG__
 3070 1364 F894      		cli
 3071 1366 DEBF      		out __SP_H__,r29
 3072 1368 0FBE      		out __SREG__,__tmp_reg__
 3073 136a CDBF      		out __SP_L__,r28
 3074 136c CF91      		pop r28
 3075 136e DF91      		pop r29
 3076 1370 1F91      		pop r17
 3077               	.LVL179:
 3078 1372 0F91      		pop r16
 3079 1374 FF90      		pop r15
 3080               	.LVL180:
 3081 1376 EF90      		pop r14
 3082 1378 DF90      		pop r13
 3083               	.LVL181:
 3084 137a CF90      		pop r12
 3085               	.LVL182:
 3086 137c BF90      		pop r11
 3087               	.LVL183:
 3088 137e AF90      		pop r10
 3089 1380 9F90      		pop r9
 3090 1382 8F90      		pop r8
 3091               	.LVL184:
 3092 1384 7F90      		pop r7
 3093 1386 6F90      		pop r6
 3094               	.LVL185:
 3095 1388 5F90      		pop r5
 3096 138a 4F90      		pop r4
 3097 138c 3F90      		pop r3
 3098 138e 2F90      		pop r2
 3099 1390 0895      		ret
 3100               	.LFE15:
 3102               	.global	fat_close_dir
 3104               	fat_close_dir:
 3105               	.LFB20:
 3106               	.LM110:
 3107               	.LVL186:
 3108               	/* prologue: function */
 3109               	/* frame size = 0 */
 3110 1392 FC01      		movw r30,r24
 3111               	.LM111:
 3112 1394 0097      		sbiw r24,0
 3113 1396 01F0      		breq .L237
 3114               	.LM112:
 3115 1398 1182      		std Z+1,__zero_reg__
 3116 139a 1082      		st Z,__zero_reg__
 3117               	.LVL187:
 3118               	.L237:
 3119 139c 0895      		ret
 3120               	.LFE20:
 3122               	.global	fat_reset_dir
 3124               	fat_reset_dir:
 3125               	.LFB22:
 3126               	.LM113:
 3127               	.LVL188:
 3128               	/* prologue: function */
 3129               	/* frame size = 0 */
 3130 139e FC01      		movw r30,r24
 3131               	.LM114:
 3132 13a0 0097      		sbiw r24,0
 3133 13a2 01F4      		brne .L239
 3134 13a4 80E0      		ldi r24,lo8(0)
 3135               	.LVL189:
 3136 13a6 0895      		ret
 3137               	.LVL190:
 3138               	.L239:
 3139               	.LM115:
 3140 13a8 83A1      		ldd r24,Z+35
 3141 13aa 94A1      		ldd r25,Z+36
 3142 13ac A5A1      		ldd r26,Z+37
 3143 13ae B6A1      		ldd r27,Z+38
 3144               	.LVL191:
 3145 13b0 83AB      		std Z+51,r24
 3146 13b2 94AB      		std Z+52,r25
 3147 13b4 A5AB      		std Z+53,r26
 3148 13b6 B6AB      		std Z+54,r27
 3149               	.LM116:
 3150 13b8 10AE      		std Z+56,__zero_reg__
 3151 13ba 17AA      		std Z+55,__zero_reg__
 3152 13bc 81E0      		ldi r24,lo8(1)
 3153               	.LM117:
 3154 13be 0895      		ret
 3155               	.LFE22:
 3158               	fat_dir_entry_read_callback:
 3159               	.LFB23:
 3160               	.LM118:
 3161               	.LVL192:
 3162 13c0 CF92      		push r12
 3163 13c2 DF92      		push r13
 3164 13c4 EF92      		push r14
 3165               	.LVL193:
 3166 13c6 FF92      		push r15
 3167 13c8 0F93      		push r16
 3168               	.LVL194:
 3169 13ca 1F93      		push r17
 3170 13cc CF93      		push r28
 3171 13ce DF93      		push r29
 3172               	/* prologue: function */
 3173               	/* frame size = 0 */
 3174 13d0 6C01      		movw r12,r24
 3175 13d2 FB01      		movw r30,r22
 3176               	.LM119:
 3177 13d4 B701      		movw r22,r14
 3178               	.LM120:
 3179 13d6 D701      		movw r26,r14
 3180               	.LVL195:
 3181 13d8 CD91      		ld r28,X+
 3182 13da DC91      		ld r29,X
 3183 13dc 1197      		sbiw r26,1
 3184               	.LVL196:
 3185               	.LM121:
 3186 13de 1296      		adiw r26,2
 3187 13e0 8D91      		ld r24,X+
 3188 13e2 9C91      		ld r25,X
 3189 13e4 1397      		sbiw r26,2+1
 3190               	.LVL197:
 3191 13e6 8096      		adiw r24,32
 3192 13e8 1396      		adiw r26,2+1
 3193 13ea 9C93      		st X,r25
 3194 13ec 8E93      		st -X,r24
 3195 13ee 1297      		sbiw r26,2
 3196               	.LM122:
 3197 13f0 D601      		movw r26,r12
 3198 13f2 8C91      		ld r24,X
 3199 13f4 853E      		cpi r24,lo8(-27)
 3200 13f6 01F4      		brne .+2
 3201 13f8 00C0      		rjmp .L243
 3202 13fa 8823      		tst r24
 3203 13fc 01F4      		brne .+2
 3204 13fe 00C0      		rjmp .L243
 3205               	.LM123:
 3206 1400 89A5      		ldd r24,Y+41
 3207 1402 9AA5      		ldd r25,Y+42
 3208 1404 892B      		or r24,r25
 3209 1406 9BA5      		ldd r25,Y+43
 3210 1408 892B      		or r24,r25
 3211 140a 9CA5      		ldd r25,Y+44
 3212 140c 892B      		or r24,r25
 3213 140e 9DA5      		ldd r25,Y+45
 3214 1410 892B      		or r24,r25
 3215 1412 9EA5      		ldd r25,Y+46
 3216 1414 892B      		or r24,r25
 3217 1416 9FA5      		ldd r25,Y+47
 3218 1418 892B      		or r24,r25
 3219 141a 98A9      		ldd r25,Y+48
 3220 141c 892B      		or r24,r25
 3221 141e 01F4      		brne .L244
 3222               	.LM124:
 3223 1420 09A7      		std Y+41,r16
 3224               	.LVL198:
 3225 1422 1AA7      		std Y+42,r17
 3226               	.LVL199:
 3227 1424 2BA7      		std Y+43,r18
 3228               	.LVL200:
 3229 1426 3CA7      		std Y+44,r19
 3230               	.LVL201:
 3231 1428 4DA7      		std Y+45,r20
 3232               	.LVL202:
 3233 142a 5EA7      		std Y+46,r21
 3234               	.LVL203:
 3235 142c EFA7      		std Y+47,r30
 3236               	.LVL204:
 3237 142e F8AB      		std Y+48,r31
 3238               	.LVL205:
 3239               	.L244:
 3240               	.LBB54:
 3241               	.LBB55:
 3242               	.LM125:
 3243 1430 2097      		sbiw r28,0
 3244 1432 01F4      		brne .+2
 3245 1434 00C0      		rjmp .L245
 3246 1436 C114      		cp r12,__zero_reg__
 3247 1438 D104      		cpc r13,__zero_reg__
 3248 143a 01F4      		brne .+2
 3249 143c 00C0      		rjmp .L245
 3250 143e F601      		movw r30,r12
 3251               	.LVL206:
 3252 1440 9081      		ld r25,Z
 3253 1442 9923      		tst r25
 3254 1444 01F4      		brne .+2
 3255 1446 00C0      		rjmp .L245
 3256               	.LM126:
 3257 1448 8385      		ldd r24,Z+11
 3258 144a 8F30      		cpi r24,lo8(15)
 3259 144c 01F4      		brne .L246
 3260               	.LBB56:
 3261               	.LM127:
 3262 144e 892F      		mov r24,r25
 3263 1450 90E0      		ldi r25,lo8(0)
 3264 1452 8F73      		andi r24,lo8(63)
 3265 1454 9070      		andi r25,hi8(63)
 3266 1456 2DE0      		ldi r18,lo8(13)
 3267 1458 30E0      		ldi r19,hi8(13)
 3268               	.LVL207:
 3269 145a 829F      		mul r24,r18
 3270 145c A001      		movw r20,r0
 3271 145e 839F      		mul r24,r19
 3272 1460 500D      		add r21,r0
 3273 1462 929F      		mul r25,r18
 3274 1464 500D      		add r21,r0
 3275 1466 1124      		clr r1
 3276               	.LVL208:
 3277 1468 4D50      		subi r20,lo8(-(-13))
 3278 146a 5040      		sbci r21,hi8(-(-13))
 3279 146c A0E0      		ldi r26,lo8(char_mapping.2082)
 3280 146e B0E0      		ldi r27,hi8(char_mapping.2082)
 3281 1470 C40F      		add r28,r20
 3282 1472 D51F      		adc r29,r21
 3283               	.LVL209:
 3284 1474 00C0      		rjmp .L247
 3285               	.L248:
 3286               	.LBB57:
 3287               	.LM128:
 3288 1476 8D91      		ld r24,X+
 3289 1478 F601      		movw r30,r12
 3290 147a E80F      		add r30,r24
 3291 147c F11D      		adc r31,__zero_reg__
 3292 147e 8081      		ld r24,Z
 3293 1480 8993      		st Y+,r24
 3294 1482 4F5F      		subi r20,lo8(-(1))
 3295 1484 5F4F      		sbci r21,hi8(-(1))
 3296               	.LM129:
 3297 1486 F0E0      		ldi r31,hi8(char_mapping.2082+13)
 3298 1488 A030      		cpi r26,lo8(char_mapping.2082+13)
 3299 148a BF07      		cpc r27,r31
 3300               	.LVL210:
 3301 148c 01F4      		brne .+2
 3302 148e 00C0      		rjmp .L243
 3303               	.LVL211:
 3304               	.L247:
 3305 1490 4F31      		cpi r20,31
 3306 1492 5105      		cpc r21,__zero_reg__
 3307 1494 00F0      		brlo .L248
 3308 1496 00C0      		rjmp .L243
 3309               	.LVL212:
 3310               	.L246:
 3311               	.LBE57:
 3312               	.LBE56:
 3313               	.LM130:
 3314 1498 8881      		ld r24,Y
 3315 149a 8823      		tst r24
 3316 149c 01F0      		breq .+2
 3317 149e 00C0      		rjmp .L249
 3318 14a0 A601      		movw r20,r12
 3319               	.LVL213:
 3320 14a2 DE01      		movw r26,r28
 3321 14a4 8601      		movw r16,r12
 3322               	.LVL214:
 3323 14a6 20E0      		ldi r18,lo8(0)
 3324               	.LVL215:
 3325               	.L252:
 3326               	.LBB58:
 3327               	.LM131:
 3328 14a8 F801      		movw r30,r16
 3329 14aa 9081      		ld r25,Z
 3330 14ac 9032      		cpi r25,lo8(32)
 3331 14ae 01F0      		breq .L250
 3332               	.LM132:
 3333 14b0 9C93      		st X,r25
 3334               	.LM133:
 3335 14b2 F601      		movw r30,r12
 3336 14b4 8485      		ldd r24,Z+12
 3337 14b6 83FF      		sbrs r24,3
 3338 14b8 00C0      		rjmp .L251
 3339 14ba F801      		movw r30,r16
 3340 14bc 8081      		ld r24,Z
 3341 14be 8134      		cpi r24,lo8(65)
 3342 14c0 00F0      		brlo .L251
 3343 14c2 8B35      		cpi r24,lo8(91)
 3344 14c4 00F4      		brsh .L251
 3345               	.LM134:
 3346 14c6 905E      		subi r25,lo8(-(32))
 3347 14c8 9C93      		st X,r25
 3348               	.L251:
 3349               	.LM135:
 3350 14ca 2F5F      		subi r18,lo8(-(1))
 3351 14cc 0F5F      		subi r16,lo8(-(1))
 3352 14ce 1F4F      		sbci r17,hi8(-(1))
 3353 14d0 1196      		adiw r26,1
 3354 14d2 2830      		cpi r18,lo8(8)
 3355 14d4 01F4      		brne .L252
 3356               	.L250:
 3357               	.LM136:
 3358 14d6 8881      		ld r24,Y
 3359 14d8 8530      		cpi r24,lo8(5)
 3360 14da 01F4      		brne .L253
 3361               	.LM137:
 3362 14dc 85EE      		ldi r24,lo8(-27)
 3363 14de 8883      		st Y,r24
 3364               	.L253:
 3365               	.LM138:
 3366 14e0 D601      		movw r26,r12
 3367 14e2 1896      		adiw r26,8
 3368 14e4 8C91      		ld r24,X
 3369 14e6 8032      		cpi r24,lo8(32)
 3370 14e8 01F0      		breq .L254
 3371               	.LBB59:
 3372               	.LM139:
 3373 14ea FE01      		movw r30,r28
 3374 14ec E20F      		add r30,r18
 3375 14ee F11D      		adc r31,__zero_reg__
 3376 14f0 8EE2      		ldi r24,lo8(46)
 3377 14f2 8083      		st Z,r24
 3378 14f4 322F      		mov r19,r18
 3379               	.LVL216:
 3380 14f6 3F5F      		subi r19,lo8(-(1))
 3381               	.LVL217:
 3382               	.LM140:
 3383 14f8 2C5F      		subi r18,lo8(-(4))
 3384               	.L257:
 3385               	.LM141:
 3386 14fa FA01      		movw r30,r20
 3387 14fc 9085      		ldd r25,Z+8
 3388 14fe 9032      		cpi r25,lo8(32)
 3389 1500 01F0      		breq .L255
 3390               	.LM142:
 3391 1502 FE01      		movw r30,r28
 3392 1504 E30F      		add r30,r19
 3393 1506 F11D      		adc r31,__zero_reg__
 3394 1508 9083      		st Z,r25
 3395               	.LM143:
 3396 150a D601      		movw r26,r12
 3397 150c 1C96      		adiw r26,12
 3398 150e 8C91      		ld r24,X
 3399 1510 84FF      		sbrs r24,4
 3400 1512 00C0      		rjmp .L256
 3401 1514 DA01      		movw r26,r20
 3402 1516 1896      		adiw r26,8
 3403 1518 8C91      		ld r24,X
 3404 151a 8134      		cpi r24,lo8(65)
 3405 151c 00F0      		brlo .L256
 3406 151e 8B35      		cpi r24,lo8(91)
 3407 1520 00F4      		brsh .L256
 3408               	.LM144:
 3409 1522 905E      		subi r25,lo8(-(32))
 3410 1524 9083      		st Z,r25
 3411               	.L256:
 3412               	.LM145:
 3413 1526 3F5F      		subi r19,lo8(-(1))
 3414 1528 4F5F      		subi r20,lo8(-(1))
 3415 152a 5F4F      		sbci r21,hi8(-(1))
 3416               	.LM146:
 3417 152c 3217      		cp r19,r18
 3418 152e 01F4      		brne .L257
 3419               	.L255:
 3420 1530 232F      		mov r18,r19
 3421               	.LVL218:
 3422               	.L254:
 3423               	.LBE59:
 3424               	.LM147:
 3425 1532 FE01      		movw r30,r28
 3426 1534 E20F      		add r30,r18
 3427 1536 F11D      		adc r31,__zero_reg__
 3428 1538 1082      		st Z,__zero_reg__
 3429               	.LVL219:
 3430               	.L249:
 3431               	.LBE58:
 3432               	.LM148:
 3433 153a F601      		movw r30,r12
 3434 153c 8385      		ldd r24,Z+11
 3435 153e 88A3      		std Y+32,r24
 3436               	.LM149:
 3437 1540 228D      		ldd r18,Z+26
 3438 1542 338D      		ldd r19,Z+27
 3439               	.LVL220:
 3440 1544 40E0      		ldi r20,lo8(0)
 3441 1546 50E0      		ldi r21,hi8(0)
 3442               	.LVL221:
 3443               	.LM150:
 3444 1548 8489      		ldd r24,Z+20
 3445 154a 9589      		ldd r25,Z+21
 3446 154c A0E0      		ldi r26,lo8(0)
 3447 154e B0E0      		ldi r27,hi8(0)
 3448 1550 DC01      		movw r26,r24
 3449 1552 9927      		clr r25
 3450 1554 8827      		clr r24
 3451               	.LVL222:
 3452 1556 822B      		or r24,r18
 3453 1558 932B      		or r25,r19
 3454 155a A42B      		or r26,r20
 3455 155c B52B      		or r27,r21
 3456 155e 89A3      		std Y+33,r24
 3457 1560 9AA3      		std Y+34,r25
 3458 1562 ABA3      		std Y+35,r26
 3459 1564 BCA3      		std Y+36,r27
 3460               	.LM151:
 3461 1566 848D      		ldd r24,Z+28
 3462 1568 958D      		ldd r25,Z+29
 3463 156a A68D      		ldd r26,Z+30
 3464 156c B78D      		ldd r27,Z+31
 3465 156e 8DA3      		std Y+37,r24
 3466 1570 9EA3      		std Y+38,r25
 3467 1572 AFA3      		std Y+39,r26
 3468 1574 B8A7      		std Y+40,r27
 3469               	.LBE55:
 3470               	.LBE54:
 3471               	.LM152:
 3472 1576 81E0      		ldi r24,lo8(1)
 3473 1578 DB01      		movw r26,r22
 3474 157a 1496      		adiw r26,4
 3475 157c 8C93      		st X,r24
 3476 157e 00C0      		rjmp .L245
 3477               	.LVL223:
 3478               	.L243:
 3479               	.LM153:
 3480 1580 81E0      		ldi r24,lo8(1)
 3481 1582 00C0      		rjmp .L258
 3482               	.LVL224:
 3483               	.L245:
 3484 1584 80E0      		ldi r24,lo8(0)
 3485               	.LVL225:
 3486               	.L258:
 3487               	/* epilogue start */
 3488               	.LM154:
 3489 1586 DF91      		pop r29
 3490 1588 CF91      		pop r28
 3491               	.LVL226:
 3492 158a 1F91      		pop r17
 3493               	.LVL227:
 3494 158c 0F91      		pop r16
 3495               	.LVL228:
 3496 158e FF90      		pop r15
 3497 1590 EF90      		pop r14
 3498               	.LVL229:
 3499 1592 DF90      		pop r13
 3500 1594 CF90      		pop r12
 3501               	.LVL230:
 3502 1596 0895      		ret
 3503               	.LFE23:
 3505               	.global	fat_delete_file
 3507               	fat_delete_file:
 3508               	.LFB28:
 3509               	.LM155:
 3510               	.LVL231:
 3511 1598 2F92      		push r2
 3512 159a 3F92      		push r3
 3513 159c 4F92      		push r4
 3514 159e 5F92      		push r5
 3515 15a0 6F92      		push r6
 3516 15a2 7F92      		push r7
 3517 15a4 8F92      		push r8
 3518 15a6 9F92      		push r9
 3519 15a8 AF92      		push r10
 3520 15aa BF92      		push r11
 3521 15ac CF92      		push r12
 3522 15ae DF92      		push r13
 3523 15b0 EF92      		push r14
 3524 15b2 FF92      		push r15
 3525 15b4 0F93      		push r16
 3526 15b6 1F93      		push r17
 3527 15b8 DF93      		push r29
 3528 15ba CF93      		push r28
 3529 15bc CDB7      		in r28,__SP_L__
 3530 15be DEB7      		in r29,__SP_H__
 3531 15c0 2C97      		sbiw r28,12
 3532 15c2 0FB6      		in __tmp_reg__,__SREG__
 3533 15c4 F894      		cli
 3534 15c6 DEBF      		out __SP_H__,r29
 3535 15c8 0FBE      		out __SREG__,__tmp_reg__
 3536 15ca CDBF      		out __SP_L__,r28
 3537               	/* prologue: function */
 3538               	/* frame size = 12 */
 3539 15cc 3C01      		movw r6,r24
 3540 15ce 6B01      		movw r12,r22
 3541               	.LM156:
 3542 15d0 0097      		sbiw r24,0
 3543 15d2 01F4      		brne .+2
 3544 15d4 00C0      		rjmp .L276
 3545               	.LVL232:
 3546 15d6 6115      		cp r22,__zero_reg__
 3547 15d8 7105      		cpc r23,__zero_reg__
 3548 15da 01F4      		brne .+2
 3549 15dc 00C0      		rjmp .L276
 3550               	.LVL233:
 3551               	.LM157:
 3552 15de DB01      		movw r26,r22
 3553 15e0 9996      		adiw r26,41
 3554 15e2 BC90      		ld r11,X
 3555 15e4 9997      		sbiw r26,41
 3556               	.LVL234:
 3557 15e6 9A96      		adiw r26,42
 3558 15e8 AC90      		ld r10,X
 3559 15ea 9A97      		sbiw r26,42
 3560               	.LVL235:
 3561 15ec 9B96      		adiw r26,43
 3562 15ee 9C90      		ld r9,X
 3563 15f0 9B97      		sbiw r26,43
 3564               	.LVL236:
 3565 15f2 9C96      		adiw r26,44
 3566 15f4 8C90      		ld r8,X
 3567 15f6 9C97      		sbiw r26,44
 3568               	.LVL237:
 3569 15f8 9D96      		adiw r26,45
 3570 15fa 5C90      		ld r5,X
 3571 15fc 9D97      		sbiw r26,45
 3572               	.LVL238:
 3573 15fe 9E96      		adiw r26,46
 3574 1600 4C90      		ld r4,X
 3575 1602 9E97      		sbiw r26,46
 3576               	.LVL239:
 3577 1604 9F96      		adiw r26,47
 3578 1606 3C90      		ld r3,X
 3579 1608 9F97      		sbiw r26,47
 3580               	.LVL240:
 3581 160a D096      		adiw r26,48
 3582 160c 2C90      		ld r2,X
 3583               	.LVL241:
 3584               	.LM158:
 3585 160e 8B2D      		mov r24,r11
 3586               	.LVL242:
 3587 1610 8A29      		or r24,r10
 3588               	.LVL243:
 3589 1612 8929      		or r24,r9
 3590 1614 8829      		or r24,r8
 3591 1616 8529      		or r24,r5
 3592 1618 8429      		or r24,r4
 3593 161a 8329      		or r24,r3
 3594 161c 8229      		or r24,r2
 3595 161e 01F4      		brne .+2
 3596 1620 00C0      		rjmp .L276
 3597               	.LVL244:
 3598               	.L297:
 3599               	.LM159:
 3600 1622 D301      		movw r26,r6
 3601 1624 ED91      		ld r30,X+
 3602 1626 FC91      		ld r31,X
 3603 1628 0190      		ld __tmp_reg__,Z+
 3604 162a F081      		ld r31,Z
 3605 162c E02D      		mov r30,__tmp_reg__
 3606 162e 2B2D      		mov r18,r11
 3607 1630 3A2D      		mov r19,r10
 3608 1632 492D      		mov r20,r9
 3609 1634 582D      		mov r21,r8
 3610 1636 652D      		mov r22,r5
 3611 1638 742D      		mov r23,r4
 3612 163a 832D      		mov r24,r3
 3613               	.LVL245:
 3614 163c 922D      		mov r25,r2
 3615 163e 8E01      		movw r16,r28
 3616 1640 0F5F      		subi r16,lo8(-(1))
 3617 1642 1F4F      		sbci r17,hi8(-(1))
 3618 1644 ACE0      		ldi r26,lo8(12)
 3619 1646 EA2E      		mov r14,r26
 3620 1648 F12C      		mov r15,__zero_reg__
 3621 164a 0995      		icall
 3622 164c 8823      		tst r24
 3623 164e 01F4      		brne .+2
 3624 1650 00C0      		rjmp .L276
 3625               	.LM160:
 3626 1652 B5EE      		ldi r27,lo8(-27)
 3627 1654 B983      		std Y+1,r27
 3628               	.LM161:
 3629 1656 D301      		movw r26,r6
 3630 1658 ED91      		ld r30,X+
 3631 165a FC91      		ld r31,X
 3632 165c 0480      		ldd __tmp_reg__,Z+4
 3633 165e F581      		ldd r31,Z+5
 3634 1660 E02D      		mov r30,__tmp_reg__
 3635 1662 2B2D      		mov r18,r11
 3636 1664 3A2D      		mov r19,r10
 3637 1666 492D      		mov r20,r9
 3638 1668 582D      		mov r21,r8
 3639 166a 652D      		mov r22,r5
 3640 166c 742D      		mov r23,r4
 3641 166e 832D      		mov r24,r3
 3642 1670 922D      		mov r25,r2
 3643 1672 8E01      		movw r16,r28
 3644 1674 0F5F      		subi r16,lo8(-(1))
 3645 1676 1F4F      		sbci r17,hi8(-(1))
 3646 1678 0995      		icall
 3647 167a 8823      		tst r24
 3648 167c 01F4      		brne .+2
 3649 167e 00C0      		rjmp .L276
 3650               	.LM162:
 3651 1680 8C85      		ldd r24,Y+12
 3652 1682 8F30      		cpi r24,lo8(15)
 3653 1684 01F4      		brne .L277
 3654               	.LM163:
 3655 1686 7B2D      		mov r23,r11
 3656 1688 705E      		subi r23,lo8(-(32))
 3657 168a 81E0      		ldi r24,lo8(1)
 3658 168c 7B15      		cp r23,r11
 3659 168e 00F0      		brlo .L278
 3660 1690 80E0      		ldi r24,lo8(0)
 3661               	.L278:
 3662 1692 682F      		mov r22,r24
 3663 1694 6A0D      		add r22,r10
 3664 1696 81E0      		ldi r24,lo8(1)
 3665 1698 6A15      		cp r22,r10
 3666 169a 00F0      		brlo .L280
 3667 169c 80E0      		ldi r24,lo8(0)
 3668               	.L280:
 3669 169e 582F      		mov r21,r24
 3670 16a0 590D      		add r21,r9
 3671 16a2 81E0      		ldi r24,lo8(1)
 3672 16a4 5915      		cp r21,r9
 3673 16a6 00F0      		brlo .L282
 3674 16a8 80E0      		ldi r24,lo8(0)
 3675               	.L282:
 3676 16aa 482F      		mov r20,r24
 3677 16ac 480D      		add r20,r8
 3678 16ae 81E0      		ldi r24,lo8(1)
 3679 16b0 4815      		cp r20,r8
 3680 16b2 00F0      		brlo .L284
 3681 16b4 80E0      		ldi r24,lo8(0)
 3682               	.L284:
 3683 16b6 382F      		mov r19,r24
 3684 16b8 350D      		add r19,r5
 3685 16ba 81E0      		ldi r24,lo8(1)
 3686 16bc 3515      		cp r19,r5
 3687 16be 00F0      		brlo .L286
 3688 16c0 80E0      		ldi r24,lo8(0)
 3689               	.L286:
 3690 16c2 282F      		mov r18,r24
 3691 16c4 240D      		add r18,r4
 3692 16c6 81E0      		ldi r24,lo8(1)
 3693 16c8 2415      		cp r18,r4
 3694 16ca 00F0      		brlo .L288
 3695 16cc 80E0      		ldi r24,lo8(0)
 3696               	.L288:
 3697 16ce 830D      		add r24,r3
 3698 16d0 91E0      		ldi r25,lo8(1)
 3699 16d2 8315      		cp r24,r3
 3700 16d4 00F0      		brlo .L290
 3701 16d6 90E0      		ldi r25,lo8(0)
 3702               	.L290:
 3703 16d8 5B01      		movw r10,r22
 3704               	.LVL246:
 3705 16da 4A01      		movw r8,r20
 3706               	.LVL247:
 3707 16dc 2901      		movw r4,r18
 3708               	.LVL248:
 3709 16de 382E      		mov r3,r24
 3710 16e0 290E      		add r2,r25
 3711 16e2 00C0      		rjmp .L297
 3712               	.LVL249:
 3713               	.L277:
 3714               	.LM164:
 3715 16e4 F601      		movw r30,r12
 3716 16e6 41A1      		ldd r20,Z+33
 3717 16e8 52A1      		ldd r21,Z+34
 3718 16ea 63A1      		ldd r22,Z+35
 3719 16ec 74A1      		ldd r23,Z+36
 3720 16ee 4115      		cp r20,__zero_reg__
 3721 16f0 5105      		cpc r21,__zero_reg__
 3722 16f2 6105      		cpc r22,__zero_reg__
 3723 16f4 7105      		cpc r23,__zero_reg__
 3724 16f6 01F0      		breq .L298
 3725               	.L292:
 3726 16f8 C301      		movw r24,r6
 3727 16fa 0E94 0000 		call fat_free_clusters
 3728 16fe 20E0      		ldi r18,lo8(0)
 3729 1700 30E0      		ldi r19,hi8(0)
 3730 1702 8823      		tst r24
 3731 1704 01F0      		breq .L293
 3732               	.L298:
 3733 1706 21E0      		ldi r18,lo8(1)
 3734 1708 30E0      		ldi r19,hi8(1)
 3735               	.L293:
 3736 170a 822F      		mov r24,r18
 3737 170c 00C0      		rjmp .L295
 3738               	.LVL250:
 3739               	.L276:
 3740 170e 80E0      		ldi r24,lo8(0)
 3741               	.L295:
 3742               	/* epilogue start */
 3743               	.LM165:
 3744 1710 2C96      		adiw r28,12
 3745 1712 0FB6      		in __tmp_reg__,__SREG__
 3746 1714 F894      		cli
 3747 1716 DEBF      		out __SP_H__,r29
 3748 1718 0FBE      		out __SREG__,__tmp_reg__
 3749 171a CDBF      		out __SP_L__,r28
 3750 171c CF91      		pop r28
 3751 171e DF91      		pop r29
 3752 1720 1F91      		pop r17
 3753 1722 0F91      		pop r16
 3754 1724 FF90      		pop r15
 3755 1726 EF90      		pop r14
 3756 1728 DF90      		pop r13
 3757 172a CF90      		pop r12
 3758               	.LVL251:
 3759 172c BF90      		pop r11
 3760               	.LVL252:
 3761 172e AF90      		pop r10
 3762               	.LVL253:
 3763 1730 9F90      		pop r9
 3764               	.LVL254:
 3765 1732 8F90      		pop r8
 3766               	.LVL255:
 3767 1734 7F90      		pop r7
 3768 1736 6F90      		pop r6
 3769               	.LVL256:
 3770 1738 5F90      		pop r5
 3771               	.LVL257:
 3772 173a 4F90      		pop r4
 3773               	.LVL258:
 3774 173c 3F90      		pop r3
 3775               	.LVL259:
 3776 173e 2F90      		pop r2
 3777               	.LVL260:
 3778 1740 0895      		ret
 3779               	.LFE28:
 3781               	.global	fat_get_fs_size
 3783               	fat_get_fs_size:
 3784               	.LFB30:
 3785               	.LM166:
 3786               	.LVL261:
 3787 1742 2F92      		push r2
 3788 1744 3F92      		push r3
 3789 1746 4F92      		push r4
 3790 1748 5F92      		push r5
 3791 174a 6F92      		push r6
 3792 174c 7F92      		push r7
 3793 174e 8F92      		push r8
 3794 1750 9F92      		push r9
 3795 1752 AF92      		push r10
 3796 1754 BF92      		push r11
 3797 1756 CF92      		push r12
 3798 1758 DF92      		push r13
 3799 175a EF92      		push r14
 3800 175c FF92      		push r15
 3801 175e 0F93      		push r16
 3802 1760 1F93      		push r17
 3803               	/* prologue: function */
 3804               	/* frame size = 0 */
 3805 1762 DC01      		movw r26,r24
 3806               	.LM167:
 3807 1764 0097      		sbiw r24,0
 3808 1766 01F4      		brne .L300
 3809 1768 20E0      		ldi r18,lo8(0)
 3810 176a 30E0      		ldi r19,lo8(0)
 3811 176c 40E0      		ldi r20,lo8(0)
 3812 176e 50E0      		ldi r21,lo8(0)
 3813 1770 60E0      		ldi r22,lo8(0)
 3814 1772 70E0      		ldi r23,lo8(0)
 3815 1774 80E0      		ldi r24,lo8(0)
 3816               	.LVL262:
 3817 1776 90E0      		ldi r25,lo8(0)
 3818 1778 00C0      		rjmp .L301
 3819               	.LVL263:
 3820               	.L300:
 3821               	.LM168:
 3822 177a ED91      		ld r30,X+
 3823 177c FC91      		ld r31,X
 3824 177e 1197      		sbiw r26,1
 3825 1780 8085      		ldd r24,Z+8
 3826               	.LVL264:
 3827 1782 5296      		adiw r26,18
 3828 1784 2D91      		ld r18,X+
 3829 1786 3D91      		ld r19,X+
 3830 1788 4D91      		ld r20,X+
 3831 178a 5C91      		ld r21,X
 3832 178c 5597      		sbiw r26,18+3
 3833 178e 5896      		adiw r26,24
 3834 1790 ED91      		ld r30,X+
 3835 1792 FC91      		ld r31,X
 3836 1794 5997      		sbiw r26,24+1
 3837 1796 8B30      		cpi r24,lo8(11)
 3838 1798 01F4      		brne .L302
 3839               	.LM169:
 3840 179a 12E0      		ldi r17,2
 3841 179c 5695      	1:	lsr r21
 3842 179e 4795      		ror r20
 3843 17a0 3795      		ror r19
 3844 17a2 2795      		ror r18
 3845 17a4 1A95      		dec r17
 3846 17a6 01F4      		brne 1b
 3847 17a8 00C0      		rjmp .L304
 3848               	.L302:
 3849               	.LM170:
 3850 17aa 5695      		lsr r21
 3851 17ac 4795      		ror r20
 3852 17ae 3795      		ror r19
 3853 17b0 2795      		ror r18
 3854               	.L304:
 3855 17b2 2250      		subi r18,lo8(-(-2))
 3856 17b4 3040      		sbci r19,hi8(-(-2))
 3857 17b6 4040      		sbci r20,hlo8(-(-2))
 3858 17b8 5040      		sbci r21,hhi8(-(-2))
 3859 17ba 5901      		movw r10,r18
 3860 17bc 6A01      		movw r12,r20
 3861 17be A601      		movw r20,r12
 3862 17c0 60E0      		ldi r22,lo8(0)
 3863 17c2 70E0      		ldi r23,lo8(0)
 3864 17c4 80E0      		ldi r24,lo8(0)
 3865 17c6 90E0      		ldi r25,lo8(0)
 3866 17c8 5F01      		movw r10,r30
 3867 17ca CC24      		clr r12
 3868 17cc DD24      		clr r13
 3869 17ce EE24      		clr r14
 3870 17d0 FF24      		clr r15
 3871 17d2 00E0      		ldi r16,lo8(0)
 3872 17d4 10E0      		ldi r17,lo8(0)
 3873 17d6 0E94 0000 		call __muldi3
 3874               	.LVL265:
 3875               	.LVL266:
 3876               	.L301:
 3877               	/* epilogue start */
 3878               	.LM171:
 3879 17da 1F91      		pop r17
 3880 17dc 0F91      		pop r16
 3881 17de FF90      		pop r15
 3882 17e0 EF90      		pop r14
 3883 17e2 DF90      		pop r13
 3884 17e4 CF90      		pop r12
 3885 17e6 BF90      		pop r11
 3886 17e8 AF90      		pop r10
 3887 17ea 9F90      		pop r9
 3888 17ec 8F90      		pop r8
 3889 17ee 7F90      		pop r7
 3890 17f0 6F90      		pop r6
 3891 17f2 5F90      		pop r5
 3892 17f4 4F90      		pop r4
 3893 17f6 3F90      		pop r3
 3894 17f8 2F90      		pop r2
 3895 17fa 0895      		ret
 3896               	.LFE30:
 3898               	.global	fat_get_fs_free
 3900               	fat_get_fs_free:
 3901               	.LFB31:
 3902               	.LM172:
 3903               	.LVL267:
 3904 17fc 2F92      		push r2
 3905 17fe 3F92      		push r3
 3906 1800 4F92      		push r4
 3907 1802 5F92      		push r5
 3908 1804 6F92      		push r6
 3909 1806 7F92      		push r7
 3910 1808 8F92      		push r8
 3911 180a 9F92      		push r9
 3912 180c AF92      		push r10
 3913 180e BF92      		push r11
 3914 1810 CF92      		push r12
 3915 1812 DF92      		push r13
 3916 1814 EF92      		push r14
 3917 1816 FF92      		push r15
 3918 1818 0F93      		push r16
 3919 181a 1F93      		push r17
 3920 181c DF93      		push r29
 3921 181e CF93      		push r28
 3922 1820 CDB7      		in r28,__SP_L__
 3923 1822 DEB7      		in r29,__SP_H__
 3924 1824 E097      		sbiw r28,48
 3925 1826 0FB6      		in __tmp_reg__,__SREG__
 3926 1828 F894      		cli
 3927 182a DEBF      		out __SP_H__,r29
 3928 182c 0FBE      		out __SREG__,__tmp_reg__
 3929 182e CDBF      		out __SP_L__,r28
 3930               	/* prologue: function */
 3931               	/* frame size = 48 */
 3932 1830 3C01      		movw r6,r24
 3933               	.LM173:
 3934 1832 0097      		sbiw r24,0
 3935 1834 01F4      		brne .+2
 3936 1836 00C0      		rjmp .L306
 3937               	.LM174:
 3938 1838 1982      		std Y+1,__zero_reg__
 3939 183a 1A82      		std Y+2,__zero_reg__
 3940 183c 1B82      		std Y+3,__zero_reg__
 3941 183e 1C82      		std Y+4,__zero_reg__
 3942               	.LM175:
 3943 1840 80E2      		ldi r24,lo8(32)
 3944 1842 90E0      		ldi r25,hi8(32)
 3945               	.LVL268:
 3946 1844 9E83      		std Y+6,r25
 3947 1846 8D83      		std Y+5,r24
 3948               	.LM176:
 3949 1848 D301      		movw r26,r6
 3950 184a 1A96      		adiw r26,10
 3951 184c BC91      		ld r27,X
 3952 184e B9A7      		std Y+41,r27
 3953 1850 F301      		movw r30,r6
 3954 1852 F385      		ldd r31,Z+11
 3955 1854 FAA7      		std Y+42,r31
 3956 1856 D301      		movw r26,r6
 3957 1858 1C96      		adiw r26,12
 3958 185a BC91      		ld r27,X
 3959 185c BBA7      		std Y+43,r27
 3960 185e F301      		movw r30,r6
 3961 1860 F585      		ldd r31,Z+13
 3962 1862 FCA7      		std Y+44,r31
 3963 1864 D301      		movw r26,r6
 3964 1866 1E96      		adiw r26,14
 3965 1868 BC91      		ld r27,X
 3966 186a BDA7      		std Y+45,r27
 3967 186c F301      		movw r30,r6
 3968 186e F785      		ldd r31,Z+15
 3969 1870 FEA7      		std Y+46,r31
 3970 1872 D301      		movw r26,r6
 3971 1874 5096      		adiw r26,16
 3972 1876 BC91      		ld r27,X
 3973 1878 BFA7      		std Y+47,r27
 3974 187a F301      		movw r30,r6
 3975 187c F189      		ldd r31,Z+17
 3976 187e F8AB      		std Y+48,r31
 3977               	.LM177:
 3978 1880 D301      		movw r26,r6
 3979 1882 5296      		adiw r26,18
 3980 1884 2D90      		ld r2,X+
 3981 1886 3D90      		ld r3,X+
 3982 1888 4D90      		ld r4,X+
 3983 188a 5C90      		ld r5,X
 3984 188c 5597      		sbiw r26,18+3
 3985               	.LVL269:
 3986 188e 00C0      		rjmp .L307
 3987               	.LVL270:
 3988               	.L325:
 3989               	.LBB60:
 3990               	.LM178:
 3991 1890 BEEF      		ldi r27,lo8(65534)
 3992 1892 2B16      		cp r2,r27
 3993 1894 BFEF      		ldi r27,hi8(65534)
 3994 1896 3B06      		cpc r3,r27
 3995 1898 B0E0      		ldi r27,hlo8(65534)
 3996 189a 4B06      		cpc r4,r27
 3997 189c B0E0      		ldi r27,hhi8(65534)
 3998 189e 5B06      		cpc r5,r27
 3999 18a0 00F0      		brlo .L308
 4000 18a2 EEEF      		ldi r30,lo8(-2)
 4001 18a4 FFEF      		ldi r31,hi8(-2)
 4002 18a6 F8A7      		std Y+40,r31
 4003 18a8 EFA3      		std Y+39,r30
 4004               	.LVL271:
 4005 18aa 00C0      		rjmp .L309
 4006               	.LVL272:
 4007               	.L308:
 4008               	.LM179:
 4009 18ac 38A6      		std Y+40,r3
 4010 18ae 2FA2      		std Y+39,r2
 4011               	.LVL273:
 4012               	.L309:
 4013               	.LM180:
 4014 18b0 D301      		movw r26,r6
 4015               	.LVL274:
 4016 18b2 ED91      		ld r30,X+
 4017 18b4 FC91      		ld r31,X
 4018 18b6 A281      		ldd r26,Z+2
 4019 18b8 B381      		ldd r27,Z+3
 4020 18ba 8085      		ldd r24,Z+8
 4021 18bc 8630      		cpi r24,lo8(6)
 4022 18be 01F0      		breq .L310
 4023 18c0 E0E0      		ldi r30,lo8(gs(fat_get_fs_free_32_callback))
 4024 18c2 F0E0      		ldi r31,hi8(gs(fat_get_fs_free_32_callback))
 4025 18c4 00C0      		rjmp .L311
 4026               	.L310:
 4027 18c6 E0E0      		ldi r30,lo8(gs(fat_get_fs_free_16_callback))
 4028 18c8 F0E0      		ldi r31,hi8(gs(fat_get_fs_free_16_callback))
 4029               	.L311:
 4030 18ca 29A5      		ldd r18,Y+41
 4031 18cc 3AA5      		ldd r19,Y+42
 4032 18ce 4BA5      		ldd r20,Y+43
 4033 18d0 5CA5      		ldd r21,Y+44
 4034 18d2 6DA5      		ldd r22,Y+45
 4035 18d4 7EA5      		ldd r23,Y+46
 4036 18d6 8FA5      		ldd r24,Y+47
 4037 18d8 98A9      		ldd r25,Y+48
 4038 18da 8E01      		movw r16,r28
 4039               	.LVL275:
 4040 18dc 095F      		subi r16,lo8(-(7))
 4041 18de 1F4F      		sbci r17,hi8(-(7))
 4042 18e0 EE24      		clr r14
 4043 18e2 FF24      		clr r15
 4044 18e4 6894      		set
 4045 18e6 E5F8      		bld r14,5
 4046               	.LVL276:
 4047 18e8 CFA0      		ldd r12,Y+39
 4048 18ea D8A4      		ldd r13,Y+40
 4049 18ec 5F01      		movw r10,r30
 4050 18ee 4E01      		movw r8,r28
 4051 18f0 0894      		sec
 4052 18f2 811C      		adc r8,__zero_reg__
 4053 18f4 911C      		adc r9,__zero_reg__
 4054 18f6 FD01      		movw r30,r26
 4055 18f8 0995      		icall
 4056 18fa 8823      		tst r24
 4057 18fc 01F4      		brne .+2
 4058 18fe 00C0      		rjmp .L306
 4059               	.LM181:
 4060 1900 CFA0      		ldd r12,Y+39
 4061 1902 D8A4      		ldd r13,Y+40
 4062 1904 5601      		movw r10,r12
 4063               	.LVL277:
 4064 1906 CC24      		clr r12
 4065 1908 DD24      		clr r13
 4066               	.LVL278:
 4067 190a EE24      		clr r14
 4068 190c FF24      		clr r15
 4069 190e 8701      		movw r16,r14
 4070               	.LVL279:
 4071 1910 F9A5      		ldd r31,Y+41
 4072 1912 FA0D      		add r31,r10
 4073 1914 91E0      		ldi r25,lo8(1)
 4074 1916 B9A5      		ldd r27,Y+41
 4075 1918 FB17      		cp r31,r27
 4076 191a 00F0      		brlo .L312
 4077 191c 90E0      		ldi r25,lo8(0)
 4078               	.L312:
 4079 191e 8AA5      		ldd r24,Y+42
 4080 1920 8B0D      		add r24,r11
 4081 1922 21E0      		ldi r18,lo8(1)
 4082 1924 EAA5      		ldd r30,Y+42
 4083 1926 8E17      		cp r24,r30
 4084 1928 00F0      		brlo .L313
 4085 192a 20E0      		ldi r18,lo8(0)
 4086               	.L313:
 4087 192c 392F      		mov r19,r25
 4088 192e 380F      		add r19,r24
 4089 1930 91E0      		ldi r25,lo8(1)
 4090 1932 3817      		cp r19,r24
 4091 1934 00F0      		brlo .L314
 4092 1936 90E0      		ldi r25,lo8(0)
 4093               	.L314:
 4094 1938 292B      		or r18,r25
 4095 193a 8BA5      		ldd r24,Y+43
 4096 193c 8C0D      		add r24,r12
 4097 193e 51E0      		ldi r21,lo8(1)
 4098 1940 9BA5      		ldd r25,Y+43
 4099 1942 8917      		cp r24,r25
 4100 1944 00F0      		brlo .L315
 4101 1946 50E0      		ldi r21,lo8(0)
 4102               	.L315:
 4103 1948 422F      		mov r20,r18
 4104 194a 480F      		add r20,r24
 4105 194c 91E0      		ldi r25,lo8(1)
 4106 194e 4817      		cp r20,r24
 4107 1950 00F0      		brlo .L316
 4108 1952 90E0      		ldi r25,lo8(0)
 4109               	.L316:
 4110 1954 592B      		or r21,r25
 4111 1956 8CA5      		ldd r24,Y+44
 4112 1958 8D0D      		add r24,r13
 4113 195a 21E0      		ldi r18,lo8(1)
 4114 195c ACA5      		ldd r26,Y+44
 4115 195e 8A17      		cp r24,r26
 4116 1960 00F0      		brlo .L317
 4117 1962 20E0      		ldi r18,lo8(0)
 4118               	.L317:
 4119 1964 580F      		add r21,r24
 4120 1966 91E0      		ldi r25,lo8(1)
 4121 1968 5817      		cp r21,r24
 4122 196a 00F0      		brlo .L318
 4123 196c 90E0      		ldi r25,lo8(0)
 4124               	.L318:
 4125 196e 292B      		or r18,r25
 4126 1970 8DA5      		ldd r24,Y+45
 4127 1972 8E0D      		add r24,r14
 4128 1974 71E0      		ldi r23,lo8(1)
 4129 1976 BDA5      		ldd r27,Y+45
 4130 1978 8B17      		cp r24,r27
 4131 197a 00F0      		brlo .L319
 4132 197c 70E0      		ldi r23,lo8(0)
 4133               	.L319:
 4134 197e 622F      		mov r22,r18
 4135 1980 680F      		add r22,r24
 4136 1982 91E0      		ldi r25,lo8(1)
 4137 1984 6817      		cp r22,r24
 4138 1986 00F0      		brlo .L320
 4139 1988 90E0      		ldi r25,lo8(0)
 4140               	.L320:
 4141 198a 792B      		or r23,r25
 4142 198c 8EA5      		ldd r24,Y+46
 4143 198e 8F0D      		add r24,r15
 4144 1990 21E0      		ldi r18,lo8(1)
 4145 1992 EEA5      		ldd r30,Y+46
 4146 1994 8E17      		cp r24,r30
 4147 1996 00F0      		brlo .L321
 4148 1998 20E0      		ldi r18,lo8(0)
 4149               	.L321:
 4150 199a 780F      		add r23,r24
 4151 199c 91E0      		ldi r25,lo8(1)
 4152 199e 7817      		cp r23,r24
 4153 19a0 00F0      		brlo .L322
 4154 19a2 90E0      		ldi r25,lo8(0)
 4155               	.L322:
 4156 19a4 292B      		or r18,r25
 4157 19a6 9FA5      		ldd r25,Y+47
 4158 19a8 900F      		add r25,r16
 4159               	.LVL280:
 4160 19aa E1E0      		ldi r30,lo8(1)
 4161 19ac 8FA5      		ldd r24,Y+47
 4162 19ae 9817      		cp r25,r24
 4163 19b0 00F0      		brlo .L323
 4164 19b2 E0E0      		ldi r30,lo8(0)
 4165               	.L323:
 4166 19b4 822F      		mov r24,r18
 4167 19b6 890F      		add r24,r25
 4168 19b8 21E0      		ldi r18,lo8(1)
 4169 19ba 8917      		cp r24,r25
 4170 19bc 00F0      		brlo .L324
 4171 19be 20E0      		ldi r18,lo8(0)
 4172               	.L324:
 4173 19c0 E22B      		or r30,r18
 4174 19c2 98A9      		ldd r25,Y+48
 4175 19c4 910F      		add r25,r17
 4176 19c6 F9A7      		std Y+41,r31
 4177 19c8 3AA7      		std Y+42,r19
 4178 19ca 4BA7      		std Y+43,r20
 4179 19cc 5CA7      		std Y+44,r21
 4180 19ce 6DA7      		std Y+45,r22
 4181 19d0 7EA7      		std Y+46,r23
 4182 19d2 8FA7      		std Y+47,r24
 4183 19d4 9E0F      		add r25,r30
 4184 19d6 98AB      		std Y+48,r25
 4185               	.LM182:
 4186 19d8 EFA1      		ldd r30,Y+39
 4187 19da F8A5      		ldd r31,Y+40
 4188 19dc CF01      		movw r24,r30
 4189               	.LVL281:
 4190 19de A0E0      		ldi r26,lo8(0)
 4191 19e0 B0E0      		ldi r27,hi8(0)
 4192               	.LVL282:
 4193 19e2 281A      		sub r2,r24
 4194 19e4 390A      		sbc r3,r25
 4195 19e6 4A0A      		sbc r4,r26
 4196 19e8 5B0A      		sbc r5,r27
 4197               	.L307:
 4198               	.LBE60:
 4199               	.LM183:
 4200 19ea 2114      		cp r2,__zero_reg__
 4201 19ec 3104      		cpc r3,__zero_reg__
 4202 19ee 4104      		cpc r4,__zero_reg__
 4203 19f0 5104      		cpc r5,__zero_reg__
 4204 19f2 01F0      		breq .+2
 4205 19f4 00C0      		rjmp .L325
 4206               	.LM184:
 4207 19f6 D301      		movw r26,r6
 4208               	.LVL283:
 4209 19f8 5896      		adiw r26,24
 4210 19fa 4D91      		ld r20,X+
 4211 19fc 5C91      		ld r21,X
 4212 19fe 5997      		sbiw r26,24+1
 4213 1a00 2980      		ldd r2,Y+1
 4214 1a02 3A80      		ldd r3,Y+2
 4215 1a04 4B80      		ldd r4,Y+3
 4216 1a06 5C80      		ldd r5,Y+4
 4217               	.LVL284:
 4218 1a08 9A01      		movw r18,r20
 4219 1a0a 40E0      		ldi r20,lo8(0)
 4220 1a0c 50E0      		ldi r21,lo8(0)
 4221 1a0e 60E0      		ldi r22,lo8(0)
 4222 1a10 70E0      		ldi r23,lo8(0)
 4223 1a12 80E0      		ldi r24,lo8(0)
 4224               	.LVL285:
 4225 1a14 90E0      		ldi r25,lo8(0)
 4226 1a16 5101      		movw r10,r2
 4227 1a18 6201      		movw r12,r4
 4228 1a1a EE24      		clr r14
 4229               	.LVL286:
 4230 1a1c FF24      		clr r15
 4231               	.LVL287:
 4232 1a1e 00E0      		ldi r16,lo8(0)
 4233               	.LVL288:
 4234 1a20 10E0      		ldi r17,lo8(0)
 4235               	.LVL289:
 4236 1a22 0E94 0000 		call __muldi3
 4237 1a26 00C0      		rjmp .L326
 4238               	.LVL290:
 4239               	.L306:
 4240 1a28 20E0      		ldi r18,lo8(0)
 4241 1a2a 30E0      		ldi r19,lo8(0)
 4242 1a2c 40E0      		ldi r20,lo8(0)
 4243 1a2e 50E0      		ldi r21,lo8(0)
 4244 1a30 60E0      		ldi r22,lo8(0)
 4245 1a32 70E0      		ldi r23,lo8(0)
 4246 1a34 80E0      		ldi r24,lo8(0)
 4247 1a36 90E0      		ldi r25,lo8(0)
 4248               	.L326:
 4249               	/* epilogue start */
 4250               	.LM185:
 4251 1a38 E096      		adiw r28,48
 4252 1a3a 0FB6      		in __tmp_reg__,__SREG__
 4253 1a3c F894      		cli
 4254 1a3e DEBF      		out __SP_H__,r29
 4255 1a40 0FBE      		out __SREG__,__tmp_reg__
 4256 1a42 CDBF      		out __SP_L__,r28
 4257 1a44 CF91      		pop r28
 4258 1a46 DF91      		pop r29
 4259 1a48 1F91      		pop r17
 4260               	.LVL291:
 4261 1a4a 0F91      		pop r16
 4262 1a4c FF90      		pop r15
 4263               	.LVL292:
 4264 1a4e EF90      		pop r14
 4265 1a50 DF90      		pop r13
 4266               	.LVL293:
 4267 1a52 CF90      		pop r12
 4268 1a54 BF90      		pop r11
 4269               	.LVL294:
 4270 1a56 AF90      		pop r10
 4271 1a58 9F90      		pop r9
 4272 1a5a 8F90      		pop r8
 4273 1a5c 7F90      		pop r7
 4274 1a5e 6F90      		pop r6
 4275               	.LVL295:
 4276 1a60 5F90      		pop r5
 4277 1a62 4F90      		pop r4
 4278 1a64 3F90      		pop r3
 4279 1a66 2F90      		pop r2
 4280               	.LVL296:
 4281 1a68 0895      		ret
 4282               	.LFE31:
 4285               	fat_get_fs_free_16_callback:
 4286               	.LFB32:
 4287               	.LM186:
 4288               	.LVL297:
 4289 1a6a EF92      		push r14
 4290               	.LVL298:
 4291 1a6c FF92      		push r15
 4292 1a6e CF93      		push r28
 4293 1a70 DF93      		push r29
 4294               	/* prologue: function */
 4295               	/* frame size = 0 */
 4296 1a72 EC01      		movw r28,r24
 4297               	.LM187:
 4298 1a74 F701      		movw r30,r14
 4299               	.LM188:
 4300 1a76 4481      		ldd r20,Z+4
 4301 1a78 5581      		ldd r21,Z+5
 4302               	.LVL299:
 4303 1a7a 20E0      		ldi r18,lo8(0)
 4304 1a7c 30E0      		ldi r19,hi8(0)
 4305               	.LVL300:
 4306 1a7e 00C0      		rjmp .L329
 4307               	.LVL301:
 4308               	.L331:
 4309               	.LBB61:
 4310               	.LBB62:
 4311               	.LM189:
 4312 1a80 8881      		ld r24,Y
 4313 1a82 9981      		ldd r25,Y+1
 4314 1a84 892B      		or r24,r25
 4315 1a86 01F4      		brne .L330
 4316               	.LM190:
 4317 1a88 8081      		ld r24,Z
 4318 1a8a 9181      		ldd r25,Z+1
 4319 1a8c A281      		ldd r26,Z+2
 4320 1a8e B381      		ldd r27,Z+3
 4321 1a90 0196      		adiw r24,1
 4322 1a92 A11D      		adc r26,__zero_reg__
 4323 1a94 B11D      		adc r27,__zero_reg__
 4324 1a96 8083      		st Z,r24
 4325 1a98 9183      		std Z+1,r25
 4326 1a9a A283      		std Z+2,r26
 4327 1a9c B383      		std Z+3,r27
 4328               	.L330:
 4329               	.LBE62:
 4330               	.LM191:
 4331 1a9e 2E5F      		subi r18,lo8(-(2))
 4332 1aa0 3F4F      		sbci r19,hi8(-(2))
 4333 1aa2 2296      		adiw r28,2
 4334               	.LVL302:
 4335               	.L329:
 4336 1aa4 2417      		cp r18,r20
 4337 1aa6 3507      		cpc r19,r21
 4338 1aa8 00F0      		brlo .L331
 4339               	.LBE61:
 4340               	.LM192:
 4341 1aaa 81E0      		ldi r24,lo8(1)
 4342               	/* epilogue start */
 4343 1aac DF91      		pop r29
 4344 1aae CF91      		pop r28
 4345               	.LVL303:
 4346 1ab0 FF90      		pop r15
 4347 1ab2 EF90      		pop r14
 4348 1ab4 0895      		ret
 4349               	.LFE32:
 4352               	fat_get_fs_free_32_callback:
 4353               	.LFB33:
 4354               	.LM193:
 4355               	.LVL304:
 4356 1ab6 EF92      		push r14
 4357               	.LVL305:
 4358 1ab8 FF92      		push r15
 4359 1aba CF93      		push r28
 4360 1abc DF93      		push r29
 4361               	/* prologue: function */
 4362               	/* frame size = 0 */
 4363 1abe EC01      		movw r28,r24
 4364               	.LM194:
 4365 1ac0 F701      		movw r30,r14
 4366               	.LM195:
 4367 1ac2 4481      		ldd r20,Z+4
 4368 1ac4 5581      		ldd r21,Z+5
 4369               	.LVL306:
 4370 1ac6 20E0      		ldi r18,lo8(0)
 4371 1ac8 30E0      		ldi r19,hi8(0)
 4372               	.LVL307:
 4373 1aca 00C0      		rjmp .L334
 4374               	.LVL308:
 4375               	.L336:
 4376               	.LBB63:
 4377               	.LBB64:
 4378               	.LM196:
 4379 1acc 8881      		ld r24,Y
 4380 1ace 9981      		ldd r25,Y+1
 4381 1ad0 AA81      		ldd r26,Y+2
 4382 1ad2 BB81      		ldd r27,Y+3
 4383 1ad4 0097      		sbiw r24,0
 4384 1ad6 A105      		cpc r26,__zero_reg__
 4385 1ad8 B105      		cpc r27,__zero_reg__
 4386 1ada 01F4      		brne .L335
 4387               	.LM197:
 4388 1adc 8081      		ld r24,Z
 4389 1ade 9181      		ldd r25,Z+1
 4390 1ae0 A281      		ldd r26,Z+2
 4391 1ae2 B381      		ldd r27,Z+3
 4392 1ae4 0196      		adiw r24,1
 4393 1ae6 A11D      		adc r26,__zero_reg__
 4394 1ae8 B11D      		adc r27,__zero_reg__
 4395 1aea 8083      		st Z,r24
 4396 1aec 9183      		std Z+1,r25
 4397 1aee A283      		std Z+2,r26
 4398 1af0 B383      		std Z+3,r27
 4399               	.L335:
 4400               	.LBE64:
 4401               	.LM198:
 4402 1af2 2C5F      		subi r18,lo8(-(4))
 4403 1af4 3F4F      		sbci r19,hi8(-(4))
 4404 1af6 2496      		adiw r28,4
 4405               	.LVL309:
 4406               	.L334:
 4407 1af8 2417      		cp r18,r20
 4408 1afa 3507      		cpc r19,r21
 4409 1afc 00F0      		brlo .L336
 4410               	.LBE63:
 4411               	.LM199:
 4412 1afe 81E0      		ldi r24,lo8(1)
 4413               	/* epilogue start */
 4414 1b00 DF91      		pop r29
 4415 1b02 CF91      		pop r28
 4416               	.LVL310:
 4417 1b04 FF90      		pop r15
 4418 1b06 EF90      		pop r14
 4419 1b08 0895      		ret
 4420               	.LFE33:
 4423               	fat_clear_cluster:
 4424               	.LFB9:
 4425               	.LM200:
 4426               	.LVL311:
 4427 1b0a 2F92      		push r2
 4428 1b0c 3F92      		push r3
 4429 1b0e 4F92      		push r4
 4430 1b10 5F92      		push r5
 4431 1b12 6F92      		push r6
 4432 1b14 7F92      		push r7
 4433 1b16 8F92      		push r8
 4434 1b18 9F92      		push r9
 4435 1b1a AF92      		push r10
 4436 1b1c BF92      		push r11
 4437 1b1e CF92      		push r12
 4438 1b20 DF92      		push r13
 4439 1b22 EF92      		push r14
 4440 1b24 FF92      		push r15
 4441 1b26 0F93      		push r16
 4442 1b28 1F93      		push r17
 4443 1b2a DF93      		push r29
 4444 1b2c CF93      		push r28
 4445 1b2e CDB7      		in r28,__SP_L__
 4446 1b30 DEB7      		in r29,__SP_H__
 4447 1b32 6297      		sbiw r28,18
 4448 1b34 0FB6      		in __tmp_reg__,__SREG__
 4449 1b36 F894      		cli
 4450 1b38 DEBF      		out __SP_H__,r29
 4451 1b3a 0FBE      		out __SREG__,__tmp_reg__
 4452 1b3c CDBF      		out __SP_L__,r28
 4453               	/* prologue: function */
 4454               	/* frame size = 18 */
 4455 1b3e 9A8B      		std Y+18,r25
 4456 1b40 898B      		std Y+17,r24
 4457               	.LM201:
 4458 1b42 4230      		cpi r20,lo8(2)
 4459 1b44 5105      		cpc r21,__zero_reg__
 4460 1b46 6105      		cpc r22,__zero_reg__
 4461 1b48 7105      		cpc r23,__zero_reg__
 4462 1b4a 00F4      		brsh .L339
 4463               	.LVL312:
 4464 1b4c 80E0      		ldi r24,lo8(0)
 4465 1b4e 00C0      		rjmp .L340
 4466               	.LVL313:
 4467               	.L339:
 4468               	.LBB65:
 4469               	.LBB66:
 4470               	.LM202:
 4471 1b50 8989      		ldd r24,Y+17
 4472 1b52 9A89      		ldd r25,Y+18
 4473 1b54 892B      		or r24,r25
 4474 1b56 01F4      		brne .L341
 4475 1b58 20E0      		ldi r18,lo8(0)
 4476               	.LVL314:
 4477 1b5a 30E0      		ldi r19,lo8(0)
 4478               	.LVL315:
 4479 1b5c 40E0      		ldi r20,lo8(0)
 4480               	.LVL316:
 4481 1b5e 50E0      		ldi r21,lo8(0)
 4482               	.LVL317:
 4483 1b60 60E0      		ldi r22,lo8(0)
 4484               	.LVL318:
 4485 1b62 70E0      		ldi r23,lo8(0)
 4486               	.LVL319:
 4487 1b64 10E0      		ldi r17,lo8(0)
 4488               	.LVL320:
 4489 1b66 90E0      		ldi r25,lo8(0)
 4490               	.LVL321:
 4491 1b68 00C0      		rjmp .L342
 4492               	.LVL322:
 4493               	.L341:
 4494               	.LM203:
 4495 1b6a 4250      		subi r20,lo8(-(-2))
 4496 1b6c 5040      		sbci r21,hi8(-(-2))
 4497 1b6e 6040      		sbci r22,hlo8(-(-2))
 4498 1b70 7040      		sbci r23,hhi8(-(-2))
 4499               	.LVL323:
 4500 1b72 5A01      		movw r10,r20
 4501 1b74 6B01      		movw r12,r22
 4502 1b76 E989      		ldd r30,Y+17
 4503 1b78 FA89      		ldd r31,Y+18
 4504 1b7a 208C      		ldd r2,Z+24
 4505 1b7c 318C      		ldd r3,Z+25
 4506 1b7e 9A01      		movw r18,r20
 4507               	.LVL324:
 4508 1b80 A601      		movw r20,r12
 4509 1b82 60E0      		ldi r22,lo8(0)
 4510 1b84 70E0      		ldi r23,lo8(0)
 4511 1b86 80E0      		ldi r24,lo8(0)
 4512 1b88 90E0      		ldi r25,lo8(0)
 4513 1b8a 5101      		movw r10,r2
 4514 1b8c CC24      		clr r12
 4515 1b8e DD24      		clr r13
 4516 1b90 EE24      		clr r14
 4517 1b92 FF24      		clr r15
 4518 1b94 00E0      		ldi r16,lo8(0)
 4519 1b96 10E0      		ldi r17,lo8(0)
 4520 1b98 0E94 0000 		call __muldi3
 4521 1b9c C92E      		mov r12,r25
 4522 1b9e E989      		ldd r30,Y+17
 4523 1ba0 FA89      		ldd r31,Y+18
 4524 1ba2 B28D      		ldd r27,Z+26
 4525 1ba4 B38C      		ldd r11,Z+27
 4526 1ba6 A48D      		ldd r26,Z+28
 4527 1ba8 158D      		ldd r17,Z+29
 4528 1baa F68C      		ldd r15,Z+30
 4529 1bac E78C      		ldd r14,Z+31
 4530 1bae D0A0      		ldd r13,Z+32
 4531 1bb0 01A1      		ldd r16,Z+33
 4532 1bb2 B20F      		add r27,r18
 4533 1bb4 E1E0      		ldi r30,lo8(1)
 4534 1bb6 B217      		cp r27,r18
 4535 1bb8 00F0      		brlo .L343
 4536 1bba E0E0      		ldi r30,lo8(0)
 4537               	.L343:
 4538 1bbc 232F      		mov r18,r19
 4539 1bbe 2B0D      		add r18,r11
 4540 1bc0 F1E0      		ldi r31,lo8(1)
 4541 1bc2 2317      		cp r18,r19
 4542 1bc4 00F0      		brlo .L344
 4543 1bc6 F0E0      		ldi r31,lo8(0)
 4544               	.L344:
 4545 1bc8 3E2F      		mov r19,r30
 4546 1bca 320F      		add r19,r18
 4547 1bcc E1E0      		ldi r30,lo8(1)
 4548 1bce 3217      		cp r19,r18
 4549 1bd0 00F0      		brlo .L345
 4550 1bd2 E0E0      		ldi r30,lo8(0)
 4551               	.L345:
 4552 1bd4 FE2B      		or r31,r30
 4553 1bd6 242F      		mov r18,r20
 4554 1bd8 2A0F      		add r18,r26
 4555 1bda A1E0      		ldi r26,lo8(1)
 4556 1bdc 2417      		cp r18,r20
 4557 1bde 00F0      		brlo .L346
 4558 1be0 A0E0      		ldi r26,lo8(0)
 4559               	.L346:
 4560 1be2 4F2F      		mov r20,r31
 4561 1be4 420F      		add r20,r18
 4562 1be6 E1E0      		ldi r30,lo8(1)
 4563 1be8 4217      		cp r20,r18
 4564 1bea 00F0      		brlo .L347
 4565 1bec E0E0      		ldi r30,lo8(0)
 4566               	.L347:
 4567 1bee AE2B      		or r26,r30
 4568 1bf0 252F      		mov r18,r21
 4569 1bf2 210F      		add r18,r17
 4570 1bf4 F1E0      		ldi r31,lo8(1)
 4571 1bf6 2517      		cp r18,r21
 4572 1bf8 00F0      		brlo .L348
 4573 1bfa F0E0      		ldi r31,lo8(0)
 4574               	.L348:
 4575 1bfc 5A2F      		mov r21,r26
 4576 1bfe 520F      		add r21,r18
 4577 1c00 E1E0      		ldi r30,lo8(1)
 4578 1c02 5217      		cp r21,r18
 4579 1c04 00F0      		brlo .L349
 4580 1c06 E0E0      		ldi r30,lo8(0)
 4581               	.L349:
 4582 1c08 FE2B      		or r31,r30
 4583 1c0a 262F      		mov r18,r22
 4584 1c0c 2F0D      		add r18,r15
 4585 1c0e A1E0      		ldi r26,lo8(1)
 4586 1c10 2617      		cp r18,r22
 4587 1c12 00F0      		brlo .L350
 4588 1c14 A0E0      		ldi r26,lo8(0)
 4589               	.L350:
 4590 1c16 6F2F      		mov r22,r31
 4591 1c18 620F      		add r22,r18
 4592 1c1a E1E0      		ldi r30,lo8(1)
 4593 1c1c 6217      		cp r22,r18
 4594 1c1e 00F0      		brlo .L351
 4595 1c20 E0E0      		ldi r30,lo8(0)
 4596               	.L351:
 4597 1c22 AE2B      		or r26,r30
 4598 1c24 272F      		mov r18,r23
 4599 1c26 2E0D      		add r18,r14
 4600 1c28 F1E0      		ldi r31,lo8(1)
 4601 1c2a 2717      		cp r18,r23
 4602 1c2c 00F0      		brlo .L352
 4603 1c2e F0E0      		ldi r31,lo8(0)
 4604               	.L352:
 4605 1c30 7A2F      		mov r23,r26
 4606 1c32 720F      		add r23,r18
 4607 1c34 E1E0      		ldi r30,lo8(1)
 4608 1c36 7217      		cp r23,r18
 4609 1c38 00F0      		brlo .L353
 4610 1c3a E0E0      		ldi r30,lo8(0)
 4611               	.L353:
 4612 1c3c FE2B      		or r31,r30
 4613 1c3e 282F      		mov r18,r24
 4614 1c40 2D0D      		add r18,r13
 4615 1c42 E1E0      		ldi r30,lo8(1)
 4616 1c44 2817      		cp r18,r24
 4617 1c46 00F0      		brlo .L354
 4618 1c48 E0E0      		ldi r30,lo8(0)
 4619               	.L354:
 4620 1c4a 8F2F      		mov r24,r31
 4621 1c4c 820F      		add r24,r18
 4622 1c4e 91E0      		ldi r25,lo8(1)
 4623 1c50 8217      		cp r24,r18
 4624 1c52 00F0      		brlo .L355
 4625 1c54 90E0      		ldi r25,lo8(0)
 4626               	.L355:
 4627 1c56 9E2B      		or r25,r30
 4628               	.LVL325:
 4629 1c58 0C0D      		add r16,r12
 4630 1c5a 2B2F      		mov r18,r27
 4631               	.LVL326:
 4632 1c5c 182F      		mov r17,r24
 4633               	.LVL327:
 4634 1c5e 900F      		add r25,r16
 4635               	.LVL328:
 4636               	.L342:
 4637               	.LBE66:
 4638               	.LBE65:
 4639               	.LM204:
 4640 1c60 DE01      		movw r26,r28
 4641 1c62 1196      		adiw r26,1
 4642 1c64 80E1      		ldi r24,lo8(16)
 4643 1c66 FD01      		movw r30,r26
 4644 1c68 1192      		st Z+,__zero_reg__
 4645 1c6a 8A95      	        dec r24
 4646 1c6c 01F4      		brne .-6
 4647               	.LM205:
 4648 1c6e E989      		ldd r30,Y+17
 4649 1c70 FA89      		ldd r31,Y+18
 4650 1c72 C080      		ld r12,Z
 4651 1c74 D180      		ldd r13,Z+1
 4652 1c76 E08C      		ldd r14,Z+24
 4653 1c78 F18C      		ldd r15,Z+25
 4654 1c7a F601      		movw r30,r12
 4655 1c7c 8680      		ldd r8,Z+6
 4656 1c7e 9780      		ldd r9,Z+7
 4657 1c80 812F      		mov r24,r17
 4658 1c82 8D01      		movw r16,r26
 4659 1c84 E0E0      		ldi r30,lo8(gs(fat_clear_cluster_callback))
 4660 1c86 CE2E      		mov r12,r30
 4661 1c88 E0E0      		ldi r30,hi8(gs(fat_clear_cluster_callback))
 4662 1c8a DE2E      		mov r13,r30
 4663 1c8c AA24      		clr r10
 4664 1c8e BB24      		clr r11
 4665 1c90 F401      		movw r30,r8
 4666 1c92 0995      		icall
 4667               	.LVL329:
 4668               	.L340:
 4669               	/* epilogue start */
 4670               	.LM206:
 4671 1c94 6296      		adiw r28,18
 4672 1c96 0FB6      		in __tmp_reg__,__SREG__
 4673 1c98 F894      		cli
 4674 1c9a DEBF      		out __SP_H__,r29
 4675 1c9c 0FBE      		out __SREG__,__tmp_reg__
 4676 1c9e CDBF      		out __SP_L__,r28
 4677 1ca0 CF91      		pop r28
 4678 1ca2 DF91      		pop r29
 4679 1ca4 1F91      		pop r17
 4680               	.LVL330:
 4681 1ca6 0F91      		pop r16
 4682 1ca8 FF90      		pop r15
 4683 1caa EF90      		pop r14
 4684 1cac DF90      		pop r13
 4685 1cae CF90      		pop r12
 4686 1cb0 BF90      		pop r11
 4687 1cb2 AF90      		pop r10
 4688 1cb4 9F90      		pop r9
 4689 1cb6 8F90      		pop r8
 4690 1cb8 7F90      		pop r7
 4691 1cba 6F90      		pop r6
 4692 1cbc 5F90      		pop r5
 4693 1cbe 4F90      		pop r4
 4694 1cc0 3F90      		pop r3
 4695 1cc2 2F90      		pop r2
 4696 1cc4 0895      		ret
 4697               	.LFE9:
 4699               	.global	fat_read_dir
 4701               	fat_read_dir:
 4702               	.LFB21:
 4703               	.LM207:
 4704               	.LVL331:
 4705 1cc6 2F92      		push r2
 4706 1cc8 3F92      		push r3
 4707 1cca 4F92      		push r4
 4708 1ccc 5F92      		push r5
 4709 1cce 6F92      		push r6
 4710 1cd0 7F92      		push r7
 4711 1cd2 8F92      		push r8
 4712 1cd4 9F92      		push r9
 4713 1cd6 AF92      		push r10
 4714 1cd8 BF92      		push r11
 4715 1cda CF92      		push r12
 4716 1cdc DF92      		push r13
 4717 1cde EF92      		push r14
 4718 1ce0 FF92      		push r15
 4719 1ce2 0F93      		push r16
 4720 1ce4 1F93      		push r17
 4721 1ce6 DF93      		push r29
 4722 1ce8 CF93      		push r28
 4723 1cea CDB7      		in r28,__SP_L__
 4724 1cec DEB7      		in r29,__SP_H__
 4725 1cee E797      		sbiw r28,55
 4726 1cf0 0FB6      		in __tmp_reg__,__SREG__
 4727 1cf2 F894      		cli
 4728 1cf4 DEBF      		out __SP_H__,r29
 4729 1cf6 0FBE      		out __SREG__,__tmp_reg__
 4730 1cf8 CDBF      		out __SP_L__,r28
 4731               	/* prologue: function */
 4732               	/* frame size = 55 */
 4733 1cfa 9DAB      		std Y+53,r25
 4734 1cfc 8CAB      		std Y+52,r24
 4735 1cfe 7FAB      		std Y+55,r23
 4736 1d00 6EAB      		std Y+54,r22
 4737               	.LM208:
 4738 1d02 0097      		sbiw r24,0
 4739 1d04 01F4      		brne .+2
 4740 1d06 00C0      		rjmp .L358
 4741               	.LVL332:
 4742 1d08 6115      		cp r22,__zero_reg__
 4743 1d0a 7105      		cpc r23,__zero_reg__
 4744 1d0c 01F4      		brne .+2
 4745 1d0e 00C0      		rjmp .L358
 4746               	.LVL333:
 4747               	.LM209:
 4748 1d10 DC01      		movw r26,r24
 4749 1d12 0D90      		ld __tmp_reg__,X+
 4750 1d14 BC91      		ld r27,X
 4751 1d16 A02D      		mov r26,__tmp_reg__
 4752 1d18 BBAB      		std Y+51,r27
 4753 1d1a AAAB      		std Y+50,r26
 4754               	.LVL334:
 4755               	.LM210:
 4756 1d1c 5896      		adiw r26,24
 4757 1d1e ED91      		ld r30,X+
 4758 1d20 FC91      		ld r31,X
 4759 1d22 5997      		sbiw r26,24+1
 4760 1d24 F9AB      		std Y+49,r31
 4761 1d26 E8AB      		std Y+48,r30
 4762               	.LVL335:
 4763               	.LM211:
 4764 1d28 DC01      		movw r26,r24
 4765 1d2a D396      		adiw r26,51
 4766 1d2c 2D91      		ld r18,X+
 4767 1d2e 3D91      		ld r19,X+
 4768 1d30 4D91      		ld r20,X+
 4769 1d32 5C91      		ld r21,X
 4770 1d34 D697      		sbiw r26,51+3
 4771 1d36 2CA7      		std Y+44,r18
 4772 1d38 3DA7      		std Y+45,r19
 4773 1d3a 4EA7      		std Y+46,r20
 4774 1d3c 5FA7      		std Y+47,r21
 4775               	.LVL336:
 4776               	.LM212:
 4777 1d3e D796      		adiw r26,55
 4778 1d40 ED91      		ld r30,X+
 4779 1d42 FC91      		ld r31,X
 4780 1d44 D897      		sbiw r26,55+1
 4781 1d46 FBA7      		std Y+43,r31
 4782 1d48 EAA7      		std Y+42,r30
 4783               	.LVL337:
 4784               	.LM213:
 4785 1d4a 81E3      		ldi r24,lo8(49)
 4786               	.LVL338:
 4787 1d4c DB01      		movw r26,r22
 4788 1d4e 1D92      		st X+,__zero_reg__
 4789 1d50 8A95      	        dec r24
 4790 1d52 01F4      		brne .-6
 4791               	.LM214:
 4792 1d54 FE01      		movw r30,r28
 4793 1d56 3196      		adiw r30,1
 4794 1d58 85E0      		ldi r24,lo8(5)
 4795 1d5a DF01      		movw r26,r30
 4796 1d5c 1D92      		st X+,__zero_reg__
 4797 1d5e 8A95      	        dec r24
 4798 1d60 01F4      		brne .-6
 4799               	.LM215:
 4800 1d62 2115      		cp r18,__zero_reg__
 4801 1d64 3105      		cpc r19,__zero_reg__
 4802 1d66 4105      		cpc r20,__zero_reg__
 4803 1d68 5105      		cpc r21,__zero_reg__
 4804 1d6a 01F0      		breq .+2
 4805 1d6c 00C0      		rjmp .L359
 4806               	.LM216:
 4807 1d6e AAA9      		ldd r26,Y+50
 4808 1d70 BBA9      		ldd r27,Y+51
 4809 1d72 ED91      		ld r30,X+
 4810 1d74 FC91      		ld r31,X
 4811 1d76 1197      		sbiw r26,1
 4812 1d78 8085      		ldd r24,Z+8
 4813 1d7a 8B30      		cpi r24,lo8(11)
 4814 1d7c 01F4      		brne .L360
 4815               	.LM217:
 4816 1d7e 9A96      		adiw r26,42
 4817 1d80 2D91      		ld r18,X+
 4818 1d82 3D91      		ld r19,X+
 4819 1d84 4D91      		ld r20,X+
 4820 1d86 5C91      		ld r21,X
 4821 1d88 9D97      		sbiw r26,42+3
 4822 1d8a 2CA7      		std Y+44,r18
 4823 1d8c 3DA7      		std Y+45,r19
 4824 1d8e 4EA7      		std Y+46,r20
 4825 1d90 5FA7      		std Y+47,r21
 4826               	.LVL339:
 4827 1d92 00C0      		rjmp .L359
 4828               	.L360:
 4829               	.LM218:
 4830 1d94 EAA9      		ldd r30,Y+50
 4831 1d96 FBA9      		ldd r31,Y+51
 4832 1d98 028C      		ldd __tmp_reg__,Z+26
 4833 1d9a F38D      		ldd r31,Z+27
 4834 1d9c E02D      		mov r30,__tmp_reg__
 4835 1d9e AAA9      		ldd r26,Y+50
 4836 1da0 BBA9      		ldd r27,Y+51
 4837 1da2 9296      		adiw r26,34
 4838 1da4 8D91      		ld r24,X+
 4839 1da6 9C91      		ld r25,X
 4840 1da8 9397      		sbiw r26,34+1
 4841 1daa E81B      		sub r30,r24
 4842 1dac F90B      		sbc r31,r25
 4843 1dae F9AB      		std Y+49,r31
 4844 1db0 E8AB      		std Y+48,r30
 4845               	.LVL340:
 4846 1db2 00C0      		rjmp .L359
 4847               	.LVL341:
 4848               	.L380:
 4849               	.LBB67:
 4850               	.LM219:
 4851 1db4 4AA5      		ldd r20,Y+42
 4852 1db6 5BA5      		ldd r21,Y+43
 4853 1db8 9A01      		movw r18,r20
 4854 1dba 40E0      		ldi r20,lo8(0)
 4855 1dbc 50E0      		ldi r21,hi8(0)
 4856 1dbe 2EA3      		std Y+38,r18
 4857 1dc0 3FA3      		std Y+39,r19
 4858 1dc2 48A7      		std Y+40,r20
 4859 1dc4 59A7      		std Y+41,r21
 4860               	.LVL342:
 4861               	.LM220:
 4862 1dc6 8CA5      		ldd r24,Y+44
 4863 1dc8 9DA5      		ldd r25,Y+45
 4864 1dca AEA5      		ldd r26,Y+46
 4865 1dcc BFA5      		ldd r27,Y+47
 4866 1dce 0097      		sbiw r24,0
 4867 1dd0 A105      		cpc r26,__zero_reg__
 4868 1dd2 B105      		cpc r27,__zero_reg__
 4869 1dd4 01F4      		brne .L361
 4870               	.LM221:
 4871 1dd6 EAA9      		ldd r30,Y+50
 4872 1dd8 FBA9      		ldd r31,Y+51
 4873 1dda 82A1      		ldd r24,Z+34
 4874 1ddc 93A1      		ldd r25,Z+35
 4875 1dde A4A1      		ldd r26,Z+36
 4876 1de0 B5A1      		ldd r27,Z+37
 4877               	.LVL343:
 4878 1de2 00C0      		rjmp .L387
 4879               	.LVL344:
 4880               	.L361:
 4881               	.LBB68:
 4882               	.LBB69:
 4883               	.LM222:
 4884 1de4 2AA9      		ldd r18,Y+50
 4885 1de6 3BA9      		ldd r19,Y+51
 4886 1de8 2115      		cp r18,__zero_reg__
 4887 1dea 3105      		cpc r19,__zero_reg__
 4888 1dec 01F4      		brne .+2
 4889 1dee 00C0      		rjmp .L363
 4890 1df0 8CA5      		ldd r24,Y+44
 4891 1df2 9DA5      		ldd r25,Y+45
 4892 1df4 AEA5      		ldd r26,Y+46
 4893 1df6 BFA5      		ldd r27,Y+47
 4894 1df8 8230      		cpi r24,lo8(2)
 4895 1dfa 9105      		cpc r25,__zero_reg__
 4896 1dfc A105      		cpc r26,__zero_reg__
 4897 1dfe B105      		cpc r27,__zero_reg__
 4898 1e00 00F4      		brsh .+2
 4899 1e02 00C0      		rjmp .L363
 4900               	.LM223:
 4901 1e04 0297      		sbiw r24,2
 4902 1e06 A109      		sbc r26,__zero_reg__
 4903 1e08 B109      		sbc r27,__zero_reg__
 4904 1e0a 5C01      		movw r10,r24
 4905 1e0c 6D01      		movw r12,r26
 4906 1e0e 0296      		adiw r24,2
 4907 1e10 A11D      		adc r26,__zero_reg__
 4908 1e12 B11D      		adc r27,__zero_reg__
 4909 1e14 8CA7      		std Y+44,r24
 4910 1e16 9DA7      		std Y+45,r25
 4911 1e18 AEA7      		std Y+46,r26
 4912 1e1a BFA7      		std Y+47,r27
 4913               	.LVL345:
 4914 1e1c D901      		movw r26,r18
 4915 1e1e 5896      		adiw r26,24
 4916 1e20 2D90      		ld r2,X+
 4917 1e22 3C90      		ld r3,X
 4918 1e24 5997      		sbiw r26,24+1
 4919 1e26 9501      		movw r18,r10
 4920 1e28 A601      		movw r20,r12
 4921 1e2a 60E0      		ldi r22,lo8(0)
 4922 1e2c 70E0      		ldi r23,lo8(0)
 4923 1e2e 80E0      		ldi r24,lo8(0)
 4924 1e30 90E0      		ldi r25,lo8(0)
 4925 1e32 5101      		movw r10,r2
 4926 1e34 CC24      		clr r12
 4927 1e36 DD24      		clr r13
 4928 1e38 EE24      		clr r14
 4929 1e3a FF24      		clr r15
 4930 1e3c 00E0      		ldi r16,lo8(0)
 4931 1e3e 10E0      		ldi r17,lo8(0)
 4932 1e40 0E94 0000 		call __muldi3
 4933 1e44 EAA9      		ldd r30,Y+50
 4934 1e46 FBA9      		ldd r31,Y+51
 4935 1e48 A28D      		ldd r26,Z+26
 4936 1e4a F38C      		ldd r15,Z+27
 4937 1e4c B48D      		ldd r27,Z+28
 4938 1e4e 058D      		ldd r16,Z+29
 4939 1e50 D68C      		ldd r13,Z+30
 4940 1e52 A20F      		add r26,r18
 4941 1e54 F1E0      		ldi r31,lo8(1)
 4942 1e56 A217      		cp r26,r18
 4943 1e58 00F0      		brlo .L364
 4944 1e5a F0E0      		ldi r31,lo8(0)
 4945               	.L364:
 4946 1e5c 232F      		mov r18,r19
 4947 1e5e 2F0D      		add r18,r15
 4948 1e60 E1E0      		ldi r30,lo8(1)
 4949 1e62 2317      		cp r18,r19
 4950 1e64 00F0      		brlo .L365
 4951 1e66 E0E0      		ldi r30,lo8(0)
 4952               	.L365:
 4953 1e68 CF2E      		mov r12,r31
 4954 1e6a C20E      		add r12,r18
 4955 1e6c 31E0      		ldi r19,lo8(1)
 4956 1e6e C216      		cp r12,r18
 4957 1e70 00F0      		brlo .L366
 4958 1e72 30E0      		ldi r19,lo8(0)
 4959               	.L366:
 4960 1e74 E32B      		or r30,r19
 4961 1e76 242F      		mov r18,r20
 4962 1e78 2B0F      		add r18,r27
 4963 1e7a F1E0      		ldi r31,lo8(1)
 4964 1e7c 2417      		cp r18,r20
 4965 1e7e 00F0      		brlo .L367
 4966 1e80 F0E0      		ldi r31,lo8(0)
 4967               	.L367:
 4968 1e82 EE2E      		mov r14,r30
 4969 1e84 E20E      		add r14,r18
 4970 1e86 31E0      		ldi r19,lo8(1)
 4971 1e88 E216      		cp r14,r18
 4972 1e8a 00F0      		brlo .L368
 4973 1e8c 30E0      		ldi r19,lo8(0)
 4974               	.L368:
 4975 1e8e F32B      		or r31,r19
 4976 1e90 252F      		mov r18,r21
 4977 1e92 200F      		add r18,r16
 4978 1e94 41E0      		ldi r20,lo8(1)
 4979 1e96 2517      		cp r18,r21
 4980 1e98 00F0      		brlo .L369
 4981 1e9a 40E0      		ldi r20,lo8(0)
 4982               	.L369:
 4983 1e9c FF2E      		mov r15,r31
 4984 1e9e F20E      		add r15,r18
 4985 1ea0 31E0      		ldi r19,lo8(1)
 4986 1ea2 F216      		cp r15,r18
 4987 1ea4 00F0      		brlo .L370
 4988 1ea6 30E0      		ldi r19,lo8(0)
 4989               	.L370:
 4990 1ea8 432B      		or r20,r19
 4991 1eaa 262F      		mov r18,r22
 4992 1eac 2D0D      		add r18,r13
 4993 1eae 042F      		mov r16,r20
 4994 1eb0 020F      		add r16,r18
 4995 1eb2 2A2F      		mov r18,r26
 4996 1eb4 3C2D      		mov r19,r12
 4997 1eb6 A701      		movw r20,r14
 4998 1eb8 00C0      		rjmp .L377
 4999               	.LVL346:
 5000               	.L363:
 5001 1eba 20E0      		ldi r18,lo8(0)
 5002 1ebc 30E0      		ldi r19,lo8(0)
 5003 1ebe 40E0      		ldi r20,lo8(0)
 5004 1ec0 50E0      		ldi r21,lo8(0)
 5005               	.L377:
 5006               	.LBE69:
 5007               	.LBE68:
 5008               	.LM224:
 5009 1ec2 8EA1      		ldd r24,Y+38
 5010 1ec4 9FA1      		ldd r25,Y+39
 5011 1ec6 A8A5      		ldd r26,Y+40
 5012 1ec8 B9A5      		ldd r27,Y+41
 5013               	.LVL347:
 5014               	.L387:
 5015 1eca 820F      		add r24,r18
 5016 1ecc 931F      		adc r25,r19
 5017 1ece A41F      		adc r26,r20
 5018 1ed0 B51F      		adc r27,r21
 5019               	.LM225:
 5020 1ed2 1C82      		std Y+4,__zero_reg__
 5021 1ed4 1B82      		std Y+3,__zero_reg__
 5022               	.LM226:
 5023 1ed6 EAA9      		ldd r30,Y+50
 5024 1ed8 FBA9      		ldd r31,Y+51
 5025 1eda 2081      		ld r18,Z
 5026 1edc 3181      		ldd r19,Z+1
 5027 1ede 2C01      		movw r4,r24
 5028 1ee0 3D01      		movw r6,r26
 5029 1ee2 C8A8      		ldd r12,Y+48
 5030 1ee4 D9A8      		ldd r13,Y+49
 5031 1ee6 4AA5      		ldd r20,Y+42
 5032 1ee8 5BA5      		ldd r21,Y+43
 5033 1eea C41A      		sub r12,r20
 5034 1eec D50A      		sbc r13,r21
 5035 1eee D901      		movw r26,r18
 5036 1ef0 1296      		adiw r26,2
 5037 1ef2 ED91      		ld r30,X+
 5038 1ef4 FC91      		ld r31,X
 5039 1ef6 1397      		sbiw r26,2+1
 5040 1ef8 9201      		movw r18,r4
 5041 1efa A301      		movw r20,r6
 5042 1efc 60E0      		ldi r22,lo8(0)
 5043 1efe 70E0      		ldi r23,lo8(0)
 5044 1f00 80E0      		ldi r24,lo8(0)
 5045               	.LVL348:
 5046 1f02 90E0      		ldi r25,lo8(0)
 5047 1f04 8E01      		movw r16,r28
 5048 1f06 0A5F      		subi r16,lo8(-(6))
 5049 1f08 1F4F      		sbci r17,hi8(-(6))
 5050 1f0a B0E2      		ldi r27,lo8(32)
 5051 1f0c EB2E      		mov r14,r27
 5052 1f0e F12C      		mov r15,__zero_reg__
 5053 1f10 A0E0      		ldi r26,lo8(gs(fat_dir_entry_read_callback))
 5054 1f12 AA2E      		mov r10,r26
 5055 1f14 A0E0      		ldi r26,hi8(gs(fat_dir_entry_read_callback))
 5056 1f16 BA2E      		mov r11,r26
 5057 1f18 4E01      		movw r8,r28
 5058 1f1a 0894      		sec
 5059 1f1c 811C      		adc r8,__zero_reg__
 5060 1f1e 911C      		adc r9,__zero_reg__
 5061 1f20 0995      		icall
 5062 1f22 8823      		tst r24
 5063 1f24 01F4      		brne .+2
 5064 1f26 00C0      		rjmp .L358
 5065               	.LM227:
 5066 1f28 8B81      		ldd r24,Y+3
 5067 1f2a 9C81      		ldd r25,Y+4
 5068 1f2c EAA5      		ldd r30,Y+42
 5069 1f2e FBA5      		ldd r31,Y+43
 5070 1f30 E80F      		add r30,r24
 5071 1f32 F91F      		adc r31,r25
 5072 1f34 FBA7      		std Y+43,r31
 5073 1f36 EAA7      		std Y+42,r30
 5074               	.LVL349:
 5075               	.LM228:
 5076 1f38 28A9      		ldd r18,Y+48
 5077 1f3a 39A9      		ldd r19,Y+49
 5078 1f3c E217      		cp r30,r18
 5079 1f3e F307      		cpc r31,r19
 5080 1f40 00F0      		brlo .L386
 5081               	.LM229:
 5082 1f42 8AA9      		ldd r24,Y+50
 5083 1f44 9BA9      		ldd r25,Y+51
 5084 1f46 4CA5      		ldd r20,Y+44
 5085 1f48 5DA5      		ldd r21,Y+45
 5086 1f4a 6EA5      		ldd r22,Y+46
 5087 1f4c 7FA5      		ldd r23,Y+47
 5088 1f4e 0E94 0000 		call fat_get_next_cluster
 5089 1f52 6CA7      		std Y+44,r22
 5090 1f54 7DA7      		std Y+45,r23
 5091 1f56 8EA7      		std Y+46,r24
 5092 1f58 9FA7      		std Y+47,r25
 5093               	.LVL350:
 5094 1f5a 1BA6      		std Y+43,__zero_reg__
 5095 1f5c 1AA6      		std Y+42,__zero_reg__
 5096               	.LVL351:
 5097 1f5e 6115      		cp r22,__zero_reg__
 5098 1f60 7105      		cpc r23,__zero_reg__
 5099 1f62 8105      		cpc r24,__zero_reg__
 5100 1f64 9105      		cpc r25,__zero_reg__
 5101 1f66 01F4      		brne .L386
 5102               	.LM230:
 5103 1f68 ACA9      		ldd r26,Y+52
 5104 1f6a BDA9      		ldd r27,Y+53
 5105 1f6c 9396      		adiw r26,35
 5106 1f6e 8D91      		ld r24,X+
 5107 1f70 9D91      		ld r25,X+
 5108 1f72 0D90      		ld __tmp_reg__,X+
 5109 1f74 BC91      		ld r27,X
 5110 1f76 A02D      		mov r26,__tmp_reg__
 5111 1f78 8CA7      		std Y+44,r24
 5112 1f7a 9DA7      		std Y+45,r25
 5113 1f7c AEA7      		std Y+46,r26
 5114 1f7e BFA7      		std Y+47,r27
 5115               	.LVL352:
 5116 1f80 00C0      		rjmp .L379
 5117               	.LVL353:
 5118               	.L359:
 5119               	.LBE67:
 5120               	.LM231:
 5121 1f82 EEA9      		ldd r30,Y+54
 5122 1f84 FFA9      		ldd r31,Y+55
 5123 1f86 FA83      		std Y+2,r31
 5124 1f88 E983      		std Y+1,r30
 5125               	.LVL354:
 5126               	.L386:
 5127               	.LM232:
 5128 1f8a 8D81      		ldd r24,Y+5
 5129 1f8c 8823      		tst r24
 5130 1f8e 01F4      		brne .+2
 5131 1f90 00C0      		rjmp .L380
 5132               	.L379:
 5133               	.LM233:
 5134 1f92 2CA5      		ldd r18,Y+44
 5135 1f94 3DA5      		ldd r19,Y+45
 5136 1f96 4EA5      		ldd r20,Y+46
 5137 1f98 5FA5      		ldd r21,Y+47
 5138 1f9a ACA9      		ldd r26,Y+52
 5139 1f9c BDA9      		ldd r27,Y+53
 5140 1f9e D396      		adiw r26,51
 5141 1fa0 2D93      		st X+,r18
 5142 1fa2 3D93      		st X+,r19
 5143 1fa4 4D93      		st X+,r20
 5144 1fa6 5C93      		st X,r21
 5145 1fa8 D697      		sbiw r26,51+3
 5146               	.LM234:
 5147 1faa EAA5      		ldd r30,Y+42
 5148 1fac FBA5      		ldd r31,Y+43
 5149 1fae D896      		adiw r26,55+1
 5150 1fb0 FC93      		st X,r31
 5151 1fb2 EE93      		st -X,r30
 5152 1fb4 D797      		sbiw r26,55
 5153               	.LM235:
 5154 1fb6 AEA9      		ldd r26,Y+54
 5155 1fb8 BFA9      		ldd r27,Y+55
 5156 1fba 8C91      		ld r24,X
 5157 1fbc 8823      		tst r24
 5158 1fbe 01F0      		breq .L382
 5159 1fc0 81E0      		ldi r24,lo8(1)
 5160 1fc2 00C0      		rjmp .L382
 5161               	.LVL355:
 5162               	.L358:
 5163 1fc4 80E0      		ldi r24,lo8(0)
 5164               	.L382:
 5165               	/* epilogue start */
 5166               	.LM236:
 5167 1fc6 E796      		adiw r28,55
 5168 1fc8 0FB6      		in __tmp_reg__,__SREG__
 5169 1fca F894      		cli
 5170 1fcc DEBF      		out __SP_H__,r29
 5171 1fce 0FBE      		out __SREG__,__tmp_reg__
 5172 1fd0 CDBF      		out __SP_L__,r28
 5173 1fd2 CF91      		pop r28
 5174 1fd4 DF91      		pop r29
 5175 1fd6 1F91      		pop r17
 5176 1fd8 0F91      		pop r16
 5177 1fda FF90      		pop r15
 5178 1fdc EF90      		pop r14
 5179 1fde DF90      		pop r13
 5180 1fe0 CF90      		pop r12
 5181 1fe2 BF90      		pop r11
 5182 1fe4 AF90      		pop r10
 5183 1fe6 9F90      		pop r9
 5184 1fe8 8F90      		pop r8
 5185 1fea 7F90      		pop r7
 5186 1fec 6F90      		pop r6
 5187 1fee 5F90      		pop r5
 5188 1ff0 4F90      		pop r4
 5189 1ff2 3F90      		pop r3
 5190 1ff4 2F90      		pop r2
 5191 1ff6 0895      		ret
 5192               	.LFE21:
 5194               	.global	fat_open
 5196               	fat_open:
 5197               	.LFB2:
 5198               	.LM237:
 5199               	.LVL356:
 5200 1ff8 2F92      		push r2
 5201 1ffa 3F92      		push r3
 5202 1ffc 4F92      		push r4
 5203 1ffe 5F92      		push r5
 5204 2000 6F92      		push r6
 5205 2002 7F92      		push r7
 5206 2004 8F92      		push r8
 5207 2006 9F92      		push r9
 5208 2008 AF92      		push r10
 5209 200a BF92      		push r11
 5210 200c CF92      		push r12
 5211 200e DF92      		push r13
 5212 2010 EF92      		push r14
 5213 2012 FF92      		push r15
 5214 2014 0F93      		push r16
 5215 2016 1F93      		push r17
 5216 2018 DF93      		push r29
 5217 201a CF93      		push r28
 5218 201c CDB7      		in r28,__SP_L__
 5219 201e DEB7      		in r29,__SP_H__
 5220 2020 CD54      		subi r28,lo8(-(-77))
 5221 2022 D040      		sbci r29,hi8(-(-77))
 5222 2024 0FB6      		in __tmp_reg__,__SREG__
 5223 2026 F894      		cli
 5224 2028 DEBF      		out __SP_H__,r29
 5225 202a 0FBE      		out __SREG__,__tmp_reg__
 5226 202c CDBF      		out __SP_L__,r28
 5227               	/* prologue: function */
 5228               	/* frame size = 77 */
 5229 202e 2C01      		movw r4,r24
 5230               	.LM238:
 5231 2030 0097      		sbiw r24,0
 5232 2032 01F4      		brne .+2
 5233 2034 00C0      		rjmp .L389
 5234 2036 DC01      		movw r26,r24
 5235 2038 1496      		adiw r26,4
 5236 203a 8D91      		ld r24,X+
 5237 203c 9C91      		ld r25,X
 5238 203e 1597      		sbiw r26,4+1
 5239               	.LVL357:
 5240 2040 892B      		or r24,r25
 5241 2042 01F4      		brne .+2
 5242 2044 00C0      		rjmp .L389
 5243 2046 1696      		adiw r26,6
 5244 2048 8D91      		ld r24,X+
 5245 204a 9C91      		ld r25,X
 5246 204c 1797      		sbiw r26,6+1
 5247 204e 892B      		or r24,r25
 5248 2050 01F4      		brne .+2
 5249 2052 00C0      		rjmp .L389
 5250 2054 00C0      		rjmp .L470
 5251               	.L471:
 5252               	.LM239:
 5253 2056 E0E0      		ldi r30,lo8(fat_fs_handles)
 5254 2058 F0E0      		ldi r31,hi8(fat_fs_handles)
 5255 205a 8EE2      		ldi r24,lo8(46)
 5256 205c DF01      		movw r26,r30
 5257 205e 1D92      		st X+,__zero_reg__
 5258 2060 8A95      	        dec r24
 5259 2062 01F4      		brne .-6
 5260               	.LM240:
 5261 2064 5092 0000 		sts (fat_fs_handles)+1,r5
 5262 2068 4092 0000 		sts fat_fs_handles,r4
 5263               	.LBB72:
 5264               	.LBB73:
 5265               	.LM241:
 5266 206c F201      		movw r30,r4
 5267 206e A184      		ldd r10,Z+9
 5268 2070 B284      		ldd r11,Z+10
 5269 2072 C384      		ldd r12,Z+11
 5270 2074 D484      		ldd r13,Z+12
 5271 2076 9501      		movw r18,r10
 5272 2078 A601      		movw r20,r12
 5273 207a 60E0      		ldi r22,lo8(0)
 5274 207c 70E0      		ldi r23,lo8(0)
 5275 207e 80E0      		ldi r24,lo8(0)
 5276 2080 90E0      		ldi r25,lo8(0)
 5277 2082 09E0      		ldi r16,lo8(9)
 5278 2084 0E94 0000 		call __ashldi3
 5279 2088 2EAF      		std Y+62,r18
 5280 208a 3FAF      		std Y+63,r19
 5281 208c 2196      		adiw r28,64-63
 5282 208e 4FAF      		std Y+63,r20
 5283 2090 2197      		sbiw r28,64-63
 5284 2092 2296      		adiw r28,65-63
 5285 2094 5FAF      		std Y+63,r21
 5286 2096 2297      		sbiw r28,65-63
 5287 2098 2396      		adiw r28,66-63
 5288 209a 6FAF      		std Y+63,r22
 5289 209c 2397      		sbiw r28,66-63
 5290 209e 2496      		adiw r28,67-63
 5291 20a0 7FAF      		std Y+63,r23
 5292 20a2 2497      		sbiw r28,67-63
 5293 20a4 2596      		adiw r28,68-63
 5294 20a6 8FAF      		std Y+63,r24
 5295 20a8 2597      		sbiw r28,68-63
 5296 20aa 2696      		adiw r28,69-63
 5297 20ac 9FAF      		std Y+63,r25
 5298 20ae 2697      		sbiw r28,69-63
 5299               	.LBE73:
 5300               	.LM242:
 5301 20b0 255F      		subi r18,lo8(-(11))
 5302 20b2 31E0      		ldi r19,lo8(1)
 5303 20b4 FEAD      		ldd r31,Y+62
 5304 20b6 2F17      		cp r18,r31
 5305 20b8 00F0      		brlo .L391
 5306 20ba 30E0      		ldi r19,lo8(0)
 5307               	.L391:
 5308 20bc EFAC      		ldd r14,Y+63
 5309 20be 3E0D      		add r19,r14
 5310 20c0 41E0      		ldi r20,lo8(1)
 5311 20c2 3E15      		cp r19,r14
 5312 20c4 00F0      		brlo .L393
 5313 20c6 40E0      		ldi r20,lo8(0)
 5314               	.L393:
 5315 20c8 2196      		adiw r28,64-63
 5316 20ca FFAC      		ldd r15,Y+63
 5317 20cc 2197      		sbiw r28,64-63
 5318 20ce 4F0D      		add r20,r15
 5319 20d0 51E0      		ldi r21,lo8(1)
 5320 20d2 4F15      		cp r20,r15
 5321 20d4 00F0      		brlo .L395
 5322 20d6 50E0      		ldi r21,lo8(0)
 5323               	.L395:
 5324 20d8 2296      		adiw r28,65-63
 5325 20da 0FAD      		ldd r16,Y+63
 5326 20dc 2297      		sbiw r28,65-63
 5327 20de 500F      		add r21,r16
 5328 20e0 61E0      		ldi r22,lo8(1)
 5329 20e2 5017      		cp r21,r16
 5330 20e4 00F0      		brlo .L397
 5331 20e6 60E0      		ldi r22,lo8(0)
 5332               	.L397:
 5333 20e8 2396      		adiw r28,66-63
 5334 20ea 1FAD      		ldd r17,Y+63
 5335 20ec 2397      		sbiw r28,66-63
 5336 20ee 610F      		add r22,r17
 5337 20f0 71E0      		ldi r23,lo8(1)
 5338 20f2 6117      		cp r22,r17
 5339 20f4 00F0      		brlo .L399
 5340 20f6 70E0      		ldi r23,lo8(0)
 5341               	.L399:
 5342 20f8 2496      		adiw r28,67-63
 5343 20fa 8FAD      		ldd r24,Y+63
 5344 20fc 2497      		sbiw r28,67-63
 5345 20fe 780F      		add r23,r24
 5346 2100 81E0      		ldi r24,lo8(1)
 5347 2102 2496      		adiw r28,67-63
 5348 2104 9FAD      		ldd r25,Y+63
 5349 2106 2497      		sbiw r28,67-63
 5350 2108 7917      		cp r23,r25
 5351 210a 00F0      		brlo .L401
 5352 210c 80E0      		ldi r24,lo8(0)
 5353               	.L401:
 5354 210e 2596      		adiw r28,68-63
 5355 2110 AFAD      		ldd r26,Y+63
 5356 2112 2597      		sbiw r28,68-63
 5357 2114 8A0F      		add r24,r26
 5358 2116 91E0      		ldi r25,lo8(1)
 5359 2118 8A17      		cp r24,r26
 5360 211a 00F0      		brlo .L403
 5361 211c 90E0      		ldi r25,lo8(0)
 5362               	.L403:
 5363 211e D201      		movw r26,r4
 5364 2120 ED91      		ld r30,X+
 5365 2122 FC91      		ld r31,X
 5366 2124 2696      		adiw r28,69-63
 5367 2126 BFAD      		ldd r27,Y+63
 5368 2128 2697      		sbiw r28,69-63
 5369 212a 9B0F      		add r25,r27
 5370 212c 8E01      		movw r16,r28
 5371 212e 0F5F      		subi r16,lo8(-(1))
 5372 2130 1F4F      		sbci r17,hi8(-(1))
 5373 2132 A5E2      		ldi r26,lo8(37)
 5374 2134 EA2E      		mov r14,r26
 5375 2136 F12C      		mov r15,__zero_reg__
 5376 2138 0995      		icall
 5377               	.LBB74:
 5378 213a 8823      		tst r24
 5379 213c 01F4      		brne .+2
 5380 213e 00C0      		rjmp .L404
 5381               	.LM243:
 5382 2140 2980      		ldd r2,Y+1
 5383 2142 3A80      		ldd r3,Y+2
 5384               	.LVL358:
 5385               	.LM244:
 5386 2144 EC81      		ldd r30,Y+4
 5387 2146 FD81      		ldd r31,Y+5
 5388 2148 FFA7      		std Y+47,r31
 5389 214a EEA7      		std Y+46,r30
 5390               	.LVL359:
 5391               	.LM245:
 5392 214c FB81      		ldd r31,Y+3
 5393 214e F8AB      		std Y+48,r31
 5394               	.LVL360:
 5395               	.LM246:
 5396 2150 EE80      		ldd r14,Y+6
 5397 2152 E9AA      		std Y+49,r14
 5398               	.LVL361:
 5399               	.LM247:
 5400 2154 0F81      		ldd r16,Y+7
 5401 2156 1885      		ldd r17,Y+8
 5402 2158 1BAB      		std Y+51,r17
 5403 215a 0AAB      		std Y+50,r16
 5404               	.LVL362:
 5405               	.LM248:
 5406 215c 8985      		ldd r24,Y+9
 5407 215e 9A85      		ldd r25,Y+10
 5408               	.LVL363:
 5409               	.LM249:
 5410 2160 2C85      		ldd r18,Y+12
 5411 2162 3D85      		ldd r19,Y+13
 5412 2164 3DAB      		std Y+53,r19
 5413 2166 2CAB      		std Y+52,r18
 5414               	.LVL364:
 5415               	.LM250:
 5416 2168 AE88      		ldd r10,Y+22
 5417 216a BF88      		ldd r11,Y+23
 5418 216c C88C      		ldd r12,Y+24
 5419 216e D98C      		ldd r13,Y+25
 5420               	.LVL365:
 5421               	.LM251:
 5422 2170 4A8D      		ldd r20,Y+26
 5423 2172 5B8D      		ldd r21,Y+27
 5424 2174 6C8D      		ldd r22,Y+28
 5425 2176 7D8D      		ldd r23,Y+29
 5426 2178 4EAB      		std Y+54,r20
 5427 217a 5FAB      		std Y+55,r21
 5428 217c 68AF      		std Y+56,r22
 5429 217e 79AF      		std Y+57,r23
 5430               	.LVL366:
 5431               	.LM252:
 5432 2180 EAA0      		ldd r14,Y+34
 5433 2182 FBA0      		ldd r15,Y+35
 5434 2184 0CA1      		ldd r16,Y+36
 5435 2186 1DA1      		ldd r17,Y+37
 5436 2188 EAAE      		std Y+58,r14
 5437 218a FBAE      		std Y+59,r15
 5438 218c 0CAF      		std Y+60,r16
 5439 218e 1DAF      		std Y+61,r17
 5440               	.LVL367:
 5441               	.LM253:
 5442 2190 A114      		cp r10,__zero_reg__
 5443 2192 B104      		cpc r11,__zero_reg__
 5444 2194 C104      		cpc r12,__zero_reg__
 5445 2196 D104      		cpc r13,__zero_reg__
 5446 2198 01F4      		brne .L405
 5447               	.LM254:
 5448 219a 0097      		sbiw r24,0
 5449 219c 01F4      		brne .+2
 5450 219e 00C0      		rjmp .L404
 5451               	.LM255:
 5452 21a0 5C01      		movw r10,r24
 5453               	.LVL368:
 5454 21a2 CC24      		clr r12
 5455 21a4 DD24      		clr r13
 5456               	.LVL369:
 5457               	.L405:
 5458               	.LM256:
 5459 21a6 0CA9      		ldd r16,Y+52
 5460 21a8 1DA9      		ldd r17,Y+53
 5461 21aa 0115      		cp r16,__zero_reg__
 5462 21ac 1105      		cpc r17,__zero_reg__
 5463 21ae 01F0      		breq .L406
 5464               	.LM257:
 5465 21b0 9801      		movw r18,r16
 5466 21b2 40E0      		ldi r20,lo8(0)
 5467 21b4 50E0      		ldi r21,hi8(0)
 5468 21b6 2EAB      		std Y+54,r18
 5469 21b8 3FAB      		std Y+55,r19
 5470 21ba 48AF      		std Y+56,r20
 5471 21bc 59AF      		std Y+57,r21
 5472               	.LVL370:
 5473 21be 00C0      		rjmp .L407
 5474               	.L406:
 5475               	.LM258:
 5476 21c0 6EA9      		ldd r22,Y+54
 5477 21c2 7FA9      		ldd r23,Y+55
 5478 21c4 88AD      		ldd r24,Y+56
 5479 21c6 99AD      		ldd r25,Y+57
 5480 21c8 6115      		cp r22,__zero_reg__
 5481 21ca 7105      		cpc r23,__zero_reg__
 5482 21cc 8105      		cpc r24,__zero_reg__
 5483 21ce 9105      		cpc r25,__zero_reg__
 5484 21d0 01F4      		brne .+2
 5485 21d2 00C0      		rjmp .L404
 5486               	.L407:
 5487               	.LM259:
 5488 21d4 EEA5      		ldd r30,Y+46
 5489 21d6 FFA5      		ldd r31,Y+47
 5490 21d8 CF01      		movw r24,r30
 5491               	.LVL371:
 5492 21da A0E0      		ldi r26,lo8(0)
 5493 21dc B0E0      		ldi r27,hi8(0)
 5494               	.LVL372:
 5495 21de 8601      		movw r16,r12
 5496 21e0 7501      		movw r14,r10
 5497 21e2 E81A      		sub r14,r24
 5498 21e4 F90A      		sbc r15,r25
 5499 21e6 0A0B      		sbc r16,r26
 5500 21e8 1B0B      		sbc r17,r27
 5501 21ea F9A9      		ldd r31,Y+49
 5502 21ec 2F2F      		mov r18,r31
 5503               	.LVL373:
 5504 21ee 30E0      		ldi r19,lo8(0)
 5505               	.LVL374:
 5506 21f0 40E0      		ldi r20,lo8(0)
 5507 21f2 50E0      		ldi r21,hi8(0)
 5508               	.LVL375:
 5509 21f4 6EA9      		ldd r22,Y+54
 5510 21f6 7FA9      		ldd r23,Y+55
 5511 21f8 88AD      		ldd r24,Y+56
 5512 21fa 99AD      		ldd r25,Y+57
 5513 21fc 0E94 0000 		call __mulsi3
 5514               	.LVL376:
 5515 2200 E61A      		sub r14,r22
 5516 2202 F70A      		sbc r15,r23
 5517 2204 080B      		sbc r16,r24
 5518 2206 190B      		sbc r17,r25
 5519 2208 C101      		movw r24,r2
 5520               	.LVL377:
 5521 220a 0197      		sbiw r24,1
 5522 220c 2AA9      		ldd r18,Y+50
 5523 220e 3BA9      		ldd r19,Y+51
 5524 2210 45E0      		ldi r20,5
 5525 2212 220F      	1:	lsl r18
 5526 2214 331F      		rol r19
 5527 2216 4A95      		dec r20
 5528 2218 01F4      		brne 1b
 5529               	.LVL378:
 5530 221a 820F      		add r24,r18
 5531 221c 931F      		adc r25,r19
 5532 221e B101      		movw r22,r2
 5533 2220 0E94 0000 		call __udivmodhi4
 5534 2224 80E0      		ldi r24,lo8(0)
 5535 2226 90E0      		ldi r25,hi8(0)
 5536 2228 E61A      		sub r14,r22
 5537 222a F70A      		sbc r15,r23
 5538 222c 080B      		sbc r16,r24
 5539 222e 190B      		sbc r17,r25
 5540 2230 68A9      		ldd r22,Y+48
 5541 2232 262F      		mov r18,r22
 5542               	.LVL379:
 5543 2234 30E0      		ldi r19,lo8(0)
 5544               	.LVL380:
 5545 2236 40E0      		ldi r20,lo8(0)
 5546 2238 50E0      		ldi r21,hi8(0)
 5547               	.LVL381:
 5548 223a C801      		movw r24,r16
 5549 223c B701      		movw r22,r14
 5550 223e 0E94 0000 		call __udivmodsi4
 5551               	.LVL382:
 5552 2242 3901      		movw r6,r18
 5553 2244 4A01      		movw r8,r20
 5554               	.LVL383:
 5555               	.LM260:
 5556 2246 75EF      		ldi r23,lo8(4085)
 5557 2248 6716      		cp r6,r23
 5558 224a 7FE0      		ldi r23,hi8(4085)
 5559 224c 7706      		cpc r7,r23
 5560 224e 70E0      		ldi r23,hlo8(4085)
 5561 2250 8706      		cpc r8,r23
 5562 2252 70E0      		ldi r23,hhi8(4085)
 5563 2254 9706      		cpc r9,r23
 5564               	.LVL384:
 5565 2256 00F4      		brsh .+2
 5566 2258 00C0      		rjmp .L404
 5567               	.LM261:
 5568 225a 85EF      		ldi r24,lo8(65525)
 5569 225c 6816      		cp r6,r24
 5570 225e 8FEF      		ldi r24,hi8(65525)
 5571 2260 7806      		cpc r7,r24
 5572 2262 80E0      		ldi r24,hlo8(65525)
 5573 2264 8806      		cpc r8,r24
 5574 2266 80E0      		ldi r24,hhi8(65525)
 5575 2268 9806      		cpc r9,r24
 5576 226a 00F4      		brsh .L408
 5577               	.LM262:
 5578 226c 86E0      		ldi r24,lo8(6)
 5579 226e D201      		movw r26,r4
 5580 2270 1896      		adiw r26,8
 5581 2272 8C93      		st X,r24
 5582 2274 00C0      		rjmp .L409
 5583               	.L408:
 5584               	.LM263:
 5585 2276 8BE0      		ldi r24,lo8(11)
 5586 2278 F201      		movw r30,r4
 5587 227a 8087      		std Z+8,r24
 5588               	.L409:
 5589               	.LM264:
 5590 227c 8CE2      		ldi r24,lo8(44)
 5591 227e E0E0      		ldi r30,lo8(fat_fs_handles+2)
 5592 2280 F0E0      		ldi r31,hi8(fat_fs_handles+2)
 5593 2282 DF01      		movw r26,r30
 5594 2284 1D92      		st X+,__zero_reg__
 5595 2286 8A95      	        dec r24
 5596 2288 01F4      		brne .-6
 5597               	.LM265:
 5598 228a 7101      		movw r14,r2
 5599 228c 00E0      		ldi r16,lo8(0)
 5600 228e 10E0      		ldi r17,hi8(0)
 5601 2290 20E0      		ldi r18,lo8(0)
 5602 2292 30E0      		ldi r19,hi8(0)
 5603 2294 40E0      		ldi r20,hlo8(0)
 5604 2296 50E0      		ldi r21,hhi8(0)
 5605 2298 2EA2      		std Y+38,r2
 5606               	.LVL385:
 5607 229a FFA2      		std Y+39,r15
 5608 229c 08A7      		std Y+40,r16
 5609 229e 19A7      		std Y+41,r17
 5610 22a0 2AA7      		std Y+42,r18
 5611 22a2 3BA7      		std Y+43,r19
 5612               	.LVL386:
 5613 22a4 4CA7      		std Y+44,r20
 5614 22a6 5DA7      		std Y+45,r21
 5615 22a8 9501      		movw r18,r10
 5616               	.LVL387:
 5617 22aa A601      		movw r20,r12
 5618               	.LVL388:
 5619 22ac 60E0      		ldi r22,lo8(0)
 5620 22ae 70E0      		ldi r23,lo8(0)
 5621 22b0 80E0      		ldi r24,lo8(0)
 5622 22b2 90E0      		ldi r25,lo8(0)
 5623 22b4 AEA0      		ldd r10,Y+38
 5624 22b6 BFA0      		ldd r11,Y+39
 5625 22b8 CC24      		clr r12
 5626 22ba DD24      		clr r13
 5627 22bc EE24      		clr r14
 5628 22be FF24      		clr r15
 5629 22c0 00E0      		ldi r16,lo8(0)
 5630 22c2 10E0      		ldi r17,lo8(0)
 5631 22c4 0E94 0000 		call __muldi3
 5632 22c8 2093 0000 		sts fat_fs_handles+2,r18
 5633 22cc 3093 0000 		sts fat_fs_handles+3,r19
 5634 22d0 4093 0000 		sts fat_fs_handles+4,r20
 5635 22d4 5093 0000 		sts fat_fs_handles+5,r21
 5636 22d8 6093 0000 		sts fat_fs_handles+6,r22
 5637 22dc 7093 0000 		sts fat_fs_handles+7,r23
 5638 22e0 8093 0000 		sts fat_fs_handles+8,r24
 5639 22e4 9093 0000 		sts fat_fs_handles+9,r25
 5640               	.LM266:
 5641 22e8 0EA5      		ldd r16,Y+46
 5642 22ea 1FA5      		ldd r17,Y+47
 5643               	.LVL389:
 5644 22ec 9801      		movw r18,r16
 5645 22ee 40E0      		ldi r20,lo8(0)
 5646 22f0 50E0      		ldi r21,lo8(0)
 5647 22f2 60E0      		ldi r22,lo8(0)
 5648 22f4 70E0      		ldi r23,lo8(0)
 5649 22f6 80E0      		ldi r24,lo8(0)
 5650 22f8 90E0      		ldi r25,lo8(0)
 5651 22fa 00E0      		ldi r16,lo8(0)
 5652 22fc 10E0      		ldi r17,lo8(0)
 5653 22fe 0E94 0000 		call __muldi3
 5654 2302 A32F      		mov r26,r19
 5655 2304 B42F      		mov r27,r20
 5656 2306 152F      		mov r17,r21
 5657 2308 062F      		mov r16,r22
 5658 230a F72E      		mov r15,r23
 5659 230c D82E      		mov r13,r24
 5660 230e CEAC      		ldd r12,Y+62
 5661 2310 C20E      		add r12,r18
 5662 2312 F1E0      		ldi r31,lo8(1)
 5663 2314 C216      		cp r12,r18
 5664 2316 00F0      		brlo .L410
 5665 2318 F0E0      		ldi r31,lo8(0)
 5666               	.L410:
 5667 231a 3FAD      		ldd r19,Y+63
 5668 231c 3A0F      		add r19,r26
 5669 231e E1E0      		ldi r30,lo8(1)
 5670 2320 3A17      		cp r19,r26
 5671 2322 00F0      		brlo .L411
 5672 2324 E0E0      		ldi r30,lo8(0)
 5673               	.L411:
 5674 2326 EF2E      		mov r14,r31
 5675 2328 E30E      		add r14,r19
 5676 232a 21E0      		ldi r18,lo8(1)
 5677 232c E316      		cp r14,r19
 5678 232e 00F0      		brlo .L412
 5679 2330 20E0      		ldi r18,lo8(0)
 5680               	.L412:
 5681 2332 E22B      		or r30,r18
 5682 2334 2196      		adiw r28,64-63
 5683 2336 4FAD      		ldd r20,Y+63
 5684 2338 2197      		sbiw r28,64-63
 5685 233a 4B0F      		add r20,r27
 5686 233c 31E0      		ldi r19,lo8(1)
 5687 233e 4B17      		cp r20,r27
 5688 2340 00F0      		brlo .L413
 5689 2342 30E0      		ldi r19,lo8(0)
 5690               	.L413:
 5691 2344 AE2F      		mov r26,r30
 5692 2346 A40F      		add r26,r20
 5693 2348 21E0      		ldi r18,lo8(1)
 5694 234a A417      		cp r26,r20
 5695 234c 00F0      		brlo .L414
 5696 234e 20E0      		ldi r18,lo8(0)
 5697               	.L414:
 5698 2350 322B      		or r19,r18
 5699 2352 2296      		adiw r28,65-63
 5700 2354 5FAD      		ldd r21,Y+63
 5701 2356 2297      		sbiw r28,65-63
 5702 2358 510F      		add r21,r17
 5703 235a 41E0      		ldi r20,lo8(1)
 5704 235c 5117      		cp r21,r17
 5705 235e 00F0      		brlo .L415
 5706 2360 40E0      		ldi r20,lo8(0)
 5707               	.L415:
 5708 2362 F32F      		mov r31,r19
 5709 2364 F50F      		add r31,r21
 5710 2366 21E0      		ldi r18,lo8(1)
 5711 2368 F517      		cp r31,r21
 5712 236a 00F0      		brlo .L416
 5713 236c 20E0      		ldi r18,lo8(0)
 5714               	.L416:
 5715 236e 422B      		or r20,r18
 5716 2370 2396      		adiw r28,66-63
 5717 2372 6FAD      		ldd r22,Y+63
 5718 2374 2397      		sbiw r28,66-63
 5719 2376 600F      		add r22,r16
 5720 2378 31E0      		ldi r19,lo8(1)
 5721 237a 6017      		cp r22,r16
 5722 237c 00F0      		brlo .L417
 5723 237e 30E0      		ldi r19,lo8(0)
 5724               	.L417:
 5725 2380 E42F      		mov r30,r20
 5726 2382 E60F      		add r30,r22
 5727 2384 21E0      		ldi r18,lo8(1)
 5728 2386 E617      		cp r30,r22
 5729 2388 00F0      		brlo .L418
 5730 238a 20E0      		ldi r18,lo8(0)
 5731               	.L418:
 5732 238c 322B      		or r19,r18
 5733 238e 2496      		adiw r28,67-63
 5734 2390 7FAD      		ldd r23,Y+63
 5735 2392 2497      		sbiw r28,67-63
 5736 2394 7F0D      		add r23,r15
 5737 2396 41E0      		ldi r20,lo8(1)
 5738 2398 7F15      		cp r23,r15
 5739 239a 00F0      		brlo .L419
 5740 239c 40E0      		ldi r20,lo8(0)
 5741               	.L419:
 5742 239e 532F      		mov r21,r19
 5743 23a0 570F      		add r21,r23
 5744 23a2 21E0      		ldi r18,lo8(1)
 5745 23a4 5717      		cp r21,r23
 5746 23a6 00F0      		brlo .L420
 5747 23a8 20E0      		ldi r18,lo8(0)
 5748               	.L420:
 5749 23aa 422B      		or r20,r18
 5750 23ac 2596      		adiw r28,68-63
 5751 23ae 8FAD      		ldd r24,Y+63
 5752 23b0 2597      		sbiw r28,68-63
 5753 23b2 8D0D      		add r24,r13
 5754 23b4 21E0      		ldi r18,lo8(1)
 5755 23b6 8D15      		cp r24,r13
 5756 23b8 00F0      		brlo .L421
 5757 23ba 20E0      		ldi r18,lo8(0)
 5758               	.L421:
 5759 23bc 480F      		add r20,r24
 5760 23be 31E0      		ldi r19,lo8(1)
 5761 23c0 4817      		cp r20,r24
 5762 23c2 00F0      		brlo .L422
 5763 23c4 30E0      		ldi r19,lo8(0)
 5764               	.L422:
 5765 23c6 232B      		or r18,r19
 5766 23c8 2696      		adiw r28,69-63
 5767 23ca 1FAD      		ldd r17,Y+63
 5768 23cc 2697      		sbiw r28,69-63
 5769 23ce 910F      		add r25,r17
 5770 23d0 290F      		add r18,r25
 5771 23d2 C092 0000 		sts fat_fs_handles+10,r12
 5772 23d6 E092 0000 		sts fat_fs_handles+11,r14
 5773 23da A093 0000 		sts fat_fs_handles+12,r26
 5774 23de F093 0000 		sts fat_fs_handles+13,r31
 5775 23e2 E093 0000 		sts fat_fs_handles+14,r30
 5776 23e6 5093 0000 		sts fat_fs_handles+15,r21
 5777 23ea 4093 0000 		sts fat_fs_handles+16,r20
 5778 23ee 2093 0000 		sts fat_fs_handles+17,r18
 5779               	.LM267:
 5780 23f2 D201      		movw r26,r4
 5781 23f4 1896      		adiw r26,8
 5782 23f6 8C91      		ld r24,X
 5783 23f8 8630      		cpi r24,lo8(6)
 5784 23fa 01F0      		breq .L423
 5785 23fc 64E0      		ldi r22,lo8(4)
 5786 23fe 70E0      		ldi r23,hi8(4)
 5787 2400 80E0      		ldi r24,hlo8(4)
 5788 2402 90E0      		ldi r25,hhi8(4)
 5789 2404 00C0      		rjmp .L424
 5790               	.L423:
 5791 2406 62E0      		ldi r22,lo8(2)
 5792 2408 70E0      		ldi r23,hi8(2)
 5793 240a 80E0      		ldi r24,hlo8(2)
 5794 240c 90E0      		ldi r25,hhi8(2)
 5795               	.L424:
 5796 240e 12E0      		ldi r17,lo8(2)
 5797 2410 E12E      		mov r14,r17
 5798 2412 F12C      		mov r15,__zero_reg__
 5799 2414 012D      		mov r16,__zero_reg__
 5800 2416 112D      		mov r17,__zero_reg__
 5801 2418 6E0C      		add r6,r14
 5802 241a 7F1C      		adc r7,r15
 5803 241c 801E      		adc r8,r16
 5804 241e 911E      		adc r9,r17
 5805 2420 A401      		movw r20,r8
 5806 2422 9301      		movw r18,r6
 5807 2424 0E94 0000 		call __mulsi3
 5808 2428 6093 0000 		sts fat_fs_handles+18,r22
 5809 242c 7093 0000 		sts (fat_fs_handles+18)+1,r23
 5810 2430 8093 0000 		sts (fat_fs_handles+18)+2,r24
 5811 2434 9093 0000 		sts (fat_fs_handles+18)+3,r25
 5812               	.LM268:
 5813 2438 3092 0000 		sts (fat_fs_handles+22)+1,r3
 5814 243c 2092 0000 		sts fat_fs_handles+22,r2
 5815               	.LVL390:
 5816               	.LM269:
 5817 2440 F8A8      		ldd r15,Y+48
 5818               	.LVL391:
 5819 2442 8F2D      		mov r24,r15
 5820               	.LVL392:
 5821 2444 90E0      		ldi r25,lo8(0)
 5822               	.LVL393:
 5823 2446 8C01      		movw r16,r24
 5824 2448 029D      		mul r16,r2
 5825 244a C001      		movw r24,r0
 5826 244c 039D      		mul r16,r3
 5827 244e 900D      		add r25,r0
 5828 2450 129D      		mul r17,r2
 5829 2452 900D      		add r25,r0
 5830 2454 1124      		clr r1
 5831               	.LVL394:
 5832 2456 9093 0000 		sts (fat_fs_handles+24)+1,r25
 5833 245a 8093 0000 		sts fat_fs_handles+24,r24
 5834               	.LM270:
 5835 245e D201      		movw r26,r4
 5836 2460 1896      		adiw r26,8
 5837 2462 8C91      		ld r24,X
 5838 2464 F9A8      		ldd r15,Y+49
 5839               	.LVL395:
 5840 2466 EF2C      		mov r14,r15
 5841 2468 FF24      		clr r15
 5842 246a 00E0      		ldi r16,lo8(0)
 5843 246c 10E0      		ldi r17,hi8(0)
 5844 246e 20E0      		ldi r18,lo8(0)
 5845 2470 30E0      		ldi r19,hi8(0)
 5846 2472 40E0      		ldi r20,hlo8(0)
 5847 2474 50E0      		ldi r21,hhi8(0)
 5848 2476 2796      		adiw r28,70-63
 5849 2478 EFAE      		std Y+63,r14
 5850 247a 2797      		sbiw r28,70-63
 5851 247c 2896      		adiw r28,71-63
 5852 247e FFAE      		std Y+63,r15
 5853 2480 2897      		sbiw r28,71-63
 5854 2482 2996      		adiw r28,72-63
 5855 2484 0FAF      		std Y+63,r16
 5856 2486 2997      		sbiw r28,72-63
 5857 2488 2A96      		adiw r28,73-63
 5858 248a 1FAF      		std Y+63,r17
 5859 248c 2A97      		sbiw r28,73-63
 5860 248e 2B96      		adiw r28,74-63
 5861 2490 2FAF      		std Y+63,r18
 5862 2492 2B97      		sbiw r28,74-63
 5863 2494 2C96      		adiw r28,75-63
 5864 2496 3FAF      		std Y+63,r19
 5865 2498 2C97      		sbiw r28,75-63
 5866 249a 2D96      		adiw r28,76-63
 5867 249c 4FAF      		std Y+63,r20
 5868 249e 2D97      		sbiw r28,76-63
 5869 24a0 2E96      		adiw r28,77-63
 5870 24a2 5FAF      		std Y+63,r21
 5871 24a4 2E97      		sbiw r28,77-63
 5872 24a6 8630      		cpi r24,lo8(6)
 5873 24a8 01F0      		breq .+2
 5874 24aa 00C0      		rjmp .L425
 5875               	.LM271:
 5876 24ac 0CA9      		ldd r16,Y+52
 5877 24ae 1DA9      		ldd r17,Y+53
 5878 24b0 2EA1      		ldd r18,Y+38
 5879 24b2 3FA1      		ldd r19,Y+39
 5880 24b4 40E0      		ldi r20,lo8(0)
 5881 24b6 50E0      		ldi r21,lo8(0)
 5882 24b8 60E0      		ldi r22,lo8(0)
 5883 24ba 70E0      		ldi r23,lo8(0)
 5884 24bc 80E0      		ldi r24,lo8(0)
 5885 24be 90E0      		ldi r25,lo8(0)
 5886               	.LVL396:
 5887 24c0 5801      		movw r10,r16
 5888 24c2 CC24      		clr r12
 5889 24c4 DD24      		clr r13
 5890 24c6 EE24      		clr r14
 5891 24c8 FF24      		clr r15
 5892 24ca 00E0      		ldi r16,lo8(0)
 5893 24cc 10E0      		ldi r17,lo8(0)
 5894 24ce 0E94 0000 		call __muldi3
 5895 24d2 2796      		adiw r28,70-63
 5896 24d4 AFAC      		ldd r10,Y+63
 5897 24d6 2797      		sbiw r28,70-63
 5898               	.LVL397:
 5899 24d8 BB24      		clr r11
 5900 24da 0E94 0000 		call __muldi3
 5901 24de F090 0000 		lds r15,fat_fs_handles+10
 5902 24e2 E091 0000 		lds r30,fat_fs_handles+11
 5903 24e6 B091 0000 		lds r27,fat_fs_handles+12
 5904 24ea 1091 0000 		lds r17,fat_fs_handles+13
 5905 24ee 0091 0000 		lds r16,fat_fs_handles+14
 5906 24f2 A090 0000 		lds r10,fat_fs_handles+15
 5907               	.LVL398:
 5908 24f6 9090 0000 		lds r9,fat_fs_handles+16
 5909 24fa A091 0000 		lds r26,fat_fs_handles+17
 5910 24fe F20E      		add r15,r18
 5911 2500 F1E0      		ldi r31,lo8(1)
 5912 2502 F216      		cp r15,r18
 5913 2504 00F0      		brlo .L426
 5914 2506 F0E0      		ldi r31,lo8(0)
 5915               	.L426:
 5916 2508 232F      		mov r18,r19
 5917 250a 2E0F      		add r18,r30
 5918 250c E1E0      		ldi r30,lo8(1)
 5919 250e 2317      		cp r18,r19
 5920 2510 00F0      		brlo .L427
 5921 2512 E0E0      		ldi r30,lo8(0)
 5922               	.L427:
 5923 2514 EF2E      		mov r14,r31
 5924 2516 E20E      		add r14,r18
 5925 2518 31E0      		ldi r19,lo8(1)
 5926 251a E216      		cp r14,r18
 5927 251c 00F0      		brlo .L428
 5928 251e 30E0      		ldi r19,lo8(0)
 5929               	.L428:
 5930 2520 E32B      		or r30,r19
 5931 2522 242F      		mov r18,r20
 5932 2524 2B0F      		add r18,r27
 5933 2526 F1E0      		ldi r31,lo8(1)
 5934 2528 2417      		cp r18,r20
 5935 252a 00F0      		brlo .L429
 5936 252c F0E0      		ldi r31,lo8(0)
 5937               	.L429:
 5938 252e DE2E      		mov r13,r30
 5939 2530 D20E      		add r13,r18
 5940 2532 31E0      		ldi r19,lo8(1)
 5941 2534 D216      		cp r13,r18
 5942 2536 00F0      		brlo .L430
 5943 2538 30E0      		ldi r19,lo8(0)
 5944               	.L430:
 5945 253a F32B      		or r31,r19
 5946 253c 252F      		mov r18,r21
 5947 253e 210F      		add r18,r17
 5948 2540 41E0      		ldi r20,lo8(1)
 5949 2542 2517      		cp r18,r21
 5950 2544 00F0      		brlo .L431
 5951 2546 40E0      		ldi r20,lo8(0)
 5952               	.L431:
 5953 2548 CF2E      		mov r12,r31
 5954 254a C20E      		add r12,r18
 5955 254c 31E0      		ldi r19,lo8(1)
 5956 254e C216      		cp r12,r18
 5957 2550 00F0      		brlo .L432
 5958 2552 30E0      		ldi r19,lo8(0)
 5959               	.L432:
 5960 2554 432B      		or r20,r19
 5961 2556 262F      		mov r18,r22
 5962 2558 200F      		add r18,r16
 5963 255a 51E0      		ldi r21,lo8(1)
 5964 255c 2617      		cp r18,r22
 5965 255e 00F0      		brlo .L433
 5966 2560 50E0      		ldi r21,lo8(0)
 5967               	.L433:
 5968 2562 B42E      		mov r11,r20
 5969 2564 B20E      		add r11,r18
 5970 2566 31E0      		ldi r19,lo8(1)
 5971 2568 B216      		cp r11,r18
 5972 256a 00F0      		brlo .L434
 5973 256c 30E0      		ldi r19,lo8(0)
 5974               	.L434:
 5975 256e 532B      		or r21,r19
 5976 2570 272F      		mov r18,r23
 5977 2572 2A0D      		add r18,r10
 5978 2574 41E0      		ldi r20,lo8(1)
 5979 2576 2717      		cp r18,r23
 5980 2578 00F0      		brlo .L435
 5981 257a 40E0      		ldi r20,lo8(0)
 5982               	.L435:
 5983 257c A52E      		mov r10,r21
 5984 257e A20E      		add r10,r18
 5985 2580 31E0      		ldi r19,lo8(1)
 5986 2582 A216      		cp r10,r18
 5987 2584 00F0      		brlo .L436
 5988 2586 30E0      		ldi r19,lo8(0)
 5989               	.L436:
 5990 2588 432B      		or r20,r19
 5991 258a 282F      		mov r18,r24
 5992 258c 290D      		add r18,r9
 5993 258e 31E0      		ldi r19,lo8(1)
 5994 2590 2817      		cp r18,r24
 5995 2592 00F0      		brlo .L437
 5996 2594 30E0      		ldi r19,lo8(0)
 5997               	.L437:
 5998 2596 942E      		mov r9,r20
 5999 2598 920E      		add r9,r18
 6000 259a 81E0      		ldi r24,lo8(1)
 6001 259c 9216      		cp r9,r18
 6002 259e 00F0      		brlo .L438
 6003 25a0 80E0      		ldi r24,lo8(0)
 6004               	.L438:
 6005 25a2 132F      		mov r17,r19
 6006 25a4 182B      		or r17,r24
 6007 25a6 A90F      		add r26,r25
 6008 25a8 1A0F      		add r17,r26
 6009 25aa F092 0000 		sts fat_fs_handles+34,r15
 6010 25ae E092 0000 		sts fat_fs_handles+35,r14
 6011 25b2 D092 0000 		sts fat_fs_handles+36,r13
 6012 25b6 C092 0000 		sts fat_fs_handles+37,r12
 6013 25ba B092 0000 		sts fat_fs_handles+38,r11
 6014 25be A092 0000 		sts fat_fs_handles+39,r10
 6015 25c2 9092 0000 		sts fat_fs_handles+40,r9
 6016 25c6 1093 0000 		sts fat_fs_handles+41,r17
 6017               	.LM272:
 6018 25ca 2AA9      		ldd r18,Y+50
 6019 25cc 3BA9      		ldd r19,Y+51
 6020 25ce 40E0      		ldi r20,lo8(0)
 6021 25d0 50E0      		ldi r21,lo8(0)
 6022 25d2 60E0      		ldi r22,lo8(0)
 6023 25d4 70E0      		ldi r23,lo8(0)
 6024 25d6 80E0      		ldi r24,lo8(0)
 6025 25d8 90E0      		ldi r25,lo8(0)
 6026 25da 05E0      		ldi r16,lo8(5)
 6027 25dc 0E94 0000 		call __ashldi3
 6028 25e0 2F0D      		add r18,r15
 6029 25e2 E1E0      		ldi r30,lo8(1)
 6030 25e4 2F15      		cp r18,r15
 6031 25e6 00F0      		brlo .L439
 6032 25e8 E0E0      		ldi r30,lo8(0)
 6033               	.L439:
 6034 25ea 3E0D      		add r19,r14
 6035 25ec F1E0      		ldi r31,lo8(1)
 6036 25ee 3E15      		cp r19,r14
 6037 25f0 00F0      		brlo .L440
 6038 25f2 F0E0      		ldi r31,lo8(0)
 6039               	.L440:
 6040 25f4 BE2F      		mov r27,r30
 6041 25f6 B30F      		add r27,r19
 6042 25f8 E1E0      		ldi r30,lo8(1)
 6043 25fa B317      		cp r27,r19
 6044 25fc 00F0      		brlo .L441
 6045 25fe E0E0      		ldi r30,lo8(0)
 6046               	.L441:
 6047 2600 FE2B      		or r31,r30
 6048 2602 4D0D      		add r20,r13
 6049 2604 E1E0      		ldi r30,lo8(1)
 6050 2606 4D15      		cp r20,r13
 6051 2608 00F0      		brlo .L442
 6052 260a E0E0      		ldi r30,lo8(0)
 6053               	.L442:
 6054 260c AF2F      		mov r26,r31
 6055 260e A40F      		add r26,r20
 6056 2610 31E0      		ldi r19,lo8(1)
 6057 2612 A417      		cp r26,r20
 6058 2614 00F0      		brlo .L443
 6059 2616 30E0      		ldi r19,lo8(0)
 6060               	.L443:
 6061 2618 E32B      		or r30,r19
 6062 261a 5C0D      		add r21,r12
 6063 261c 41E0      		ldi r20,lo8(1)
 6064 261e 5C15      		cp r21,r12
 6065 2620 00F0      		brlo .L444
 6066 2622 40E0      		ldi r20,lo8(0)
 6067               	.L444:
 6068 2624 FE2F      		mov r31,r30
 6069 2626 F50F      		add r31,r21
 6070 2628 31E0      		ldi r19,lo8(1)
 6071 262a F517      		cp r31,r21
 6072 262c 00F0      		brlo .L445
 6073 262e 30E0      		ldi r19,lo8(0)
 6074               	.L445:
 6075 2630 432B      		or r20,r19
 6076 2632 6B0D      		add r22,r11
 6077 2634 51E0      		ldi r21,lo8(1)
 6078 2636 6B15      		cp r22,r11
 6079 2638 00F0      		brlo .L446
 6080 263a 50E0      		ldi r21,lo8(0)
 6081               	.L446:
 6082 263c E42F      		mov r30,r20
 6083 263e E60F      		add r30,r22
 6084 2640 31E0      		ldi r19,lo8(1)
 6085 2642 E617      		cp r30,r22
 6086 2644 00F0      		brlo .L447
 6087 2646 30E0      		ldi r19,lo8(0)
 6088               	.L447:
 6089 2648 532B      		or r21,r19
 6090 264a 7A0D      		add r23,r10
 6091 264c 41E0      		ldi r20,lo8(1)
 6092 264e 7A15      		cp r23,r10
 6093 2650 00F0      		brlo .L448
 6094 2652 40E0      		ldi r20,lo8(0)
 6095               	.L448:
 6096 2654 652F      		mov r22,r21
 6097 2656 670F      		add r22,r23
 6098 2658 31E0      		ldi r19,lo8(1)
 6099 265a 6717      		cp r22,r23
 6100 265c 00F0      		brlo .L449
 6101 265e 30E0      		ldi r19,lo8(0)
 6102               	.L449:
 6103 2660 432B      		or r20,r19
 6104 2662 890D      		add r24,r9
 6105 2664 31E0      		ldi r19,lo8(1)
 6106 2666 8915      		cp r24,r9
 6107 2668 00F0      		brlo .L450
 6108 266a 30E0      		ldi r19,lo8(0)
 6109               	.L450:
 6110 266c 542F      		mov r21,r20
 6111 266e 580F      		add r21,r24
 6112 2670 41E0      		ldi r20,lo8(1)
 6113 2672 5817      		cp r21,r24
 6114 2674 00F0      		brlo .L451
 6115 2676 40E0      		ldi r20,lo8(0)
 6116               	.L451:
 6117 2678 342B      		or r19,r20
 6118 267a 190F      		add r17,r25
 6119 267c 310F      		add r19,r17
 6120 267e 2093 0000 		sts fat_fs_handles+26,r18
 6121 2682 B093 0000 		sts fat_fs_handles+27,r27
 6122 2686 A093 0000 		sts fat_fs_handles+28,r26
 6123 268a F093 0000 		sts fat_fs_handles+29,r31
 6124 268e E093 0000 		sts fat_fs_handles+30,r30
 6125 2692 6093 0000 		sts fat_fs_handles+31,r22
 6126 2696 5093 0000 		sts fat_fs_handles+32,r21
 6127 269a 3093 0000 		sts fat_fs_handles+33,r19
 6128 269e 00C0      		rjmp .L469
 6129               	.LVL399:
 6130               	.L425:
 6131               	.LM273:
 6132 26a0 2796      		adiw r28,70-63
 6133 26a2 AFAC      		ldd r10,Y+63
 6134 26a4 2797      		sbiw r28,70-63
 6135               	.LVL400:
 6136 26a6 2EA1      		ldd r18,Y+38
 6137 26a8 3FA1      		ldd r19,Y+39
 6138 26aa 40E0      		ldi r20,lo8(0)
 6139 26ac 50E0      		ldi r21,lo8(0)
 6140 26ae 60E0      		ldi r22,lo8(0)
 6141 26b0 70E0      		ldi r23,lo8(0)
 6142 26b2 80E0      		ldi r24,lo8(0)
 6143 26b4 90E0      		ldi r25,lo8(0)
 6144               	.LVL401:
 6145 26b6 BB24      		clr r11
 6146 26b8 CC24      		clr r12
 6147 26ba DD24      		clr r13
 6148 26bc EE24      		clr r14
 6149 26be FF24      		clr r15
 6150 26c0 00E0      		ldi r16,lo8(0)
 6151 26c2 10E0      		ldi r17,lo8(0)
 6152 26c4 0E94 0000 		call __muldi3
 6153 26c8 EEA8      		ldd r14,Y+54
 6154 26ca FFA8      		ldd r15,Y+55
 6155 26cc 08AD      		ldd r16,Y+56
 6156 26ce 19AD      		ldd r17,Y+57
 6157 26d0 1701      		movw r2,r14
 6158 26d2 2801      		movw r4,r16
 6159               	.LVL402:
 6160 26d4 5701      		movw r10,r14
 6161               	.LVL403:
 6162 26d6 6201      		movw r12,r4
 6163               	.LVL404:
 6164 26d8 EE24      		clr r14
 6165 26da FF24      		clr r15
 6166 26dc 00E0      		ldi r16,lo8(0)
 6167 26de 10E0      		ldi r17,lo8(0)
 6168 26e0 0E94 0000 		call __muldi3
 6169 26e4 A091 0000 		lds r26,fat_fs_handles+10
 6170 26e8 E091 0000 		lds r30,fat_fs_handles+11
 6171 26ec 1091 0000 		lds r17,fat_fs_handles+12
 6172 26f0 0091 0000 		lds r16,fat_fs_handles+13
 6173 26f4 F090 0000 		lds r15,fat_fs_handles+14
 6174 26f8 D090 0000 		lds r13,fat_fs_handles+15
 6175 26fc C090 0000 		lds r12,fat_fs_handles+16
 6176 2700 B091 0000 		lds r27,fat_fs_handles+17
 6177 2704 A20F      		add r26,r18
 6178 2706 F1E0      		ldi r31,lo8(1)
 6179 2708 A217      		cp r26,r18
 6180 270a 00F0      		brlo .L453
 6181 270c F0E0      		ldi r31,lo8(0)
 6182               	.L453:
 6183 270e 232F      		mov r18,r19
 6184 2710 2E0F      		add r18,r30
 6185 2712 E1E0      		ldi r30,lo8(1)
 6186 2714 2317      		cp r18,r19
 6187 2716 00F0      		brlo .L454
 6188 2718 E0E0      		ldi r30,lo8(0)
 6189               	.L454:
 6190 271a EF2E      		mov r14,r31
 6191 271c E20E      		add r14,r18
 6192 271e 31E0      		ldi r19,lo8(1)
 6193 2720 E216      		cp r14,r18
 6194 2722 00F0      		brlo .L455
 6195 2724 30E0      		ldi r19,lo8(0)
 6196               	.L455:
 6197 2726 E32B      		or r30,r19
 6198 2728 242F      		mov r18,r20
 6199 272a 210F      		add r18,r17
 6200 272c F1E0      		ldi r31,lo8(1)
 6201 272e 2417      		cp r18,r20
 6202 2730 00F0      		brlo .L456
 6203 2732 F0E0      		ldi r31,lo8(0)
 6204               	.L456:
 6205 2734 1E2F      		mov r17,r30
 6206 2736 120F      		add r17,r18
 6207 2738 31E0      		ldi r19,lo8(1)
 6208 273a 1217      		cp r17,r18
 6209 273c 00F0      		brlo .L457
 6210 273e 30E0      		ldi r19,lo8(0)
 6211               	.L457:
 6212 2740 F32B      		or r31,r19
 6213 2742 252F      		mov r18,r21
 6214 2744 200F      		add r18,r16
 6215 2746 41E0      		ldi r20,lo8(1)
 6216 2748 2517      		cp r18,r21
 6217 274a 00F0      		brlo .L458
 6218 274c 40E0      		ldi r20,lo8(0)
 6219               	.L458:
 6220 274e EF2F      		mov r30,r31
 6221 2750 E20F      		add r30,r18
 6222 2752 31E0      		ldi r19,lo8(1)
 6223 2754 E217      		cp r30,r18
 6224 2756 00F0      		brlo .L459
 6225 2758 30E0      		ldi r19,lo8(0)
 6226               	.L459:
 6227 275a 432B      		or r20,r19
 6228 275c 262F      		mov r18,r22
 6229 275e 2F0D      		add r18,r15
 6230 2760 51E0      		ldi r21,lo8(1)
 6231 2762 2617      		cp r18,r22
 6232 2764 00F0      		brlo .L460
 6233 2766 50E0      		ldi r21,lo8(0)
 6234               	.L460:
 6235 2768 642F      		mov r22,r20
 6236 276a 620F      		add r22,r18
 6237 276c 31E0      		ldi r19,lo8(1)
 6238 276e 6217      		cp r22,r18
 6239 2770 00F0      		brlo .L461
 6240 2772 30E0      		ldi r19,lo8(0)
 6241               	.L461:
 6242 2774 532B      		or r21,r19
 6243 2776 272F      		mov r18,r23
 6244 2778 2D0D      		add r18,r13
 6245 277a 41E0      		ldi r20,lo8(1)
 6246 277c 2717      		cp r18,r23
 6247 277e 00F0      		brlo .L462
 6248 2780 40E0      		ldi r20,lo8(0)
 6249               	.L462:
 6250 2782 520F      		add r21,r18
 6251 2784 31E0      		ldi r19,lo8(1)
 6252 2786 5217      		cp r21,r18
 6253 2788 00F0      		brlo .L463
 6254 278a 30E0      		ldi r19,lo8(0)
 6255               	.L463:
 6256 278c 432B      		or r20,r19
 6257 278e 282F      		mov r18,r24
 6258 2790 2C0D      		add r18,r12
 6259 2792 31E0      		ldi r19,lo8(1)
 6260 2794 2817      		cp r18,r24
 6261 2796 00F0      		brlo .L464
 6262 2798 30E0      		ldi r19,lo8(0)
 6263               	.L464:
 6264 279a 420F      		add r20,r18
 6265 279c 81E0      		ldi r24,lo8(1)
 6266 279e 4217      		cp r20,r18
 6267 27a0 00F0      		brlo .L465
 6268 27a2 80E0      		ldi r24,lo8(0)
 6269               	.L465:
 6270 27a4 382B      		or r19,r24
 6271 27a6 B90F      		add r27,r25
 6272 27a8 3B0F      		add r19,r27
 6273 27aa A093 0000 		sts fat_fs_handles+26,r26
 6274 27ae E092 0000 		sts fat_fs_handles+27,r14
 6275 27b2 1093 0000 		sts fat_fs_handles+28,r17
 6276 27b6 E093 0000 		sts fat_fs_handles+29,r30
 6277 27ba 6093 0000 		sts fat_fs_handles+30,r22
 6278 27be 5093 0000 		sts fat_fs_handles+31,r21
 6279 27c2 4093 0000 		sts fat_fs_handles+32,r20
 6280 27c6 3093 0000 		sts fat_fs_handles+33,r19
 6281               	.LM274:
 6282 27ca 0AAD      		ldd r16,Y+58
 6283 27cc 1BAD      		ldd r17,Y+59
 6284 27ce 2CAD      		ldd r18,Y+60
 6285 27d0 3DAD      		ldd r19,Y+61
 6286 27d2 0093 0000 		sts fat_fs_handles+42,r16
 6287 27d6 1093 0000 		sts (fat_fs_handles+42)+1,r17
 6288 27da 2093 0000 		sts (fat_fs_handles+42)+2,r18
 6289 27de 3093 0000 		sts (fat_fs_handles+42)+3,r19
 6290               	.LVL405:
 6291               	.L469:
 6292 27e2 20E0      		ldi r18,lo8(fat_fs_handles)
 6293 27e4 30E0      		ldi r19,hi8(fat_fs_handles)
 6294               	.LVL406:
 6295 27e6 00C0      		rjmp .L452
 6296               	.LVL407:
 6297               	.L389:
 6298 27e8 20E0      		ldi r18,lo8(0)
 6299 27ea 30E0      		ldi r19,hi8(0)
 6300               	.LVL408:
 6301               	.L452:
 6302               	.LBE74:
 6303               	.LBE72:
 6304               	.LM275:
 6305 27ec C901      		movw r24,r18
 6306               	.LVL409:
 6307               	/* epilogue start */
 6308 27ee C35B      		subi r28,lo8(-(77))
 6309 27f0 DF4F      		sbci r29,hi8(-(77))
 6310 27f2 0FB6      		in __tmp_reg__,__SREG__
 6311 27f4 F894      		cli
 6312 27f6 DEBF      		out __SP_H__,r29
 6313 27f8 0FBE      		out __SREG__,__tmp_reg__
 6314 27fa CDBF      		out __SP_L__,r28
 6315 27fc CF91      		pop r28
 6316 27fe DF91      		pop r29
 6317 2800 1F91      		pop r17
 6318 2802 0F91      		pop r16
 6319 2804 FF90      		pop r15
 6320 2806 EF90      		pop r14
 6321 2808 DF90      		pop r13
 6322 280a CF90      		pop r12
 6323               	.LVL410:
 6324 280c BF90      		pop r11
 6325 280e AF90      		pop r10
 6326               	.LVL411:
 6327 2810 9F90      		pop r9
 6328 2812 8F90      		pop r8
 6329 2814 7F90      		pop r7
 6330 2816 6F90      		pop r6
 6331               	.LVL412:
 6332 2818 5F90      		pop r5
 6333 281a 4F90      		pop r4
 6334               	.LVL413:
 6335 281c 3F90      		pop r3
 6336 281e 2F90      		pop r2
 6337               	.LVL414:
 6338 2820 0895      		ret
 6339               	.LVL415:
 6340               	.L470:
 6341               	.LM276:
 6342 2822 8091 0000 		lds r24,fat_fs_handles
 6343 2826 9091 0000 		lds r25,(fat_fs_handles)+1
 6344 282a 892B      		or r24,r25
 6345 282c 01F4      		brne .L389
 6346 282e 00C0      		rjmp .L471
 6347               	.LVL416:
 6348               	.L404:
 6349               	.LM277:
 6350 2830 1092 0000 		sts (fat_fs_handles)+1,__zero_reg__
 6351 2834 1092 0000 		sts fat_fs_handles,__zero_reg__
 6352 2838 00C0      		rjmp .L389
 6353               	.LFE2:
 6356               	fat_find_offset_for_dir_entry:
 6357               	.LFB25:
 6358               	.LM278:
 6359               	.LVL417:
 6360 283a 2F92      		push r2
 6361 283c 3F92      		push r3
 6362 283e 4F92      		push r4
 6363 2840 5F92      		push r5
 6364 2842 6F92      		push r6
 6365 2844 7F92      		push r7
 6366 2846 8F92      		push r8
 6367 2848 9F92      		push r9
 6368 284a AF92      		push r10
 6369 284c BF92      		push r11
 6370 284e CF92      		push r12
 6371 2850 DF92      		push r13
 6372 2852 EF92      		push r14
 6373 2854 FF92      		push r15
 6374 2856 0F93      		push r16
 6375 2858 1F93      		push r17
 6376 285a DF93      		push r29
 6377 285c CF93      		push r28
 6378 285e CDB7      		in r28,__SP_L__
 6379 2860 DEB7      		in r29,__SP_H__
 6380 2862 6997      		sbiw r28,25
 6381 2864 0FB6      		in __tmp_reg__,__SREG__
 6382 2866 F894      		cli
 6383 2868 DEBF      		out __SP_H__,r29
 6384 286a 0FBE      		out __SREG__,__tmp_reg__
 6385 286c CDBF      		out __SP_L__,r28
 6386               	/* prologue: function */
 6387               	/* frame size = 25 */
 6388 286e 9D87      		std Y+13,r25
 6389 2870 8C87      		std Y+12,r24
 6390 2872 9B01      		movw r18,r22
 6391               	.LM279:
 6392 2874 892B      		or r24,r25
 6393 2876 01F4      		brne .+2
 6394 2878 00C0      		rjmp .L473
 6395               	.LVL418:
 6396 287a 4115      		cp r20,__zero_reg__
 6397 287c 5105      		cpc r21,__zero_reg__
 6398 287e 01F4      		brne .+2
 6399 2880 00C0      		rjmp .L473
 6400               	.LM280:
 6401 2882 DA01      		movw r26,r20
 6402 2884 0D90      		ld __tmp_reg__,X+
 6403 2886 0020      		tst __tmp_reg__
 6404 2888 01F4      		brne .-6
 6405 288a A41B      		sub r26,r20
 6406 288c B50B      		sbc r27,r21
 6407 288e CD01      		movw r24,r26
 6408               	.LVL419:
 6409 2890 0B96      		adiw r24,11
 6410 2892 6DE0      		ldi r22,lo8(13)
 6411 2894 70E0      		ldi r23,hi8(13)
 6412 2896 0E94 0000 		call __udivmodhi4
 6413 289a 462F      		mov r20,r22
 6414               	.LVL420:
 6415 289c 4F5F      		subi r20,lo8(-(1))
 6416 289e 4B87      		std Y+11,r20
 6417               	.LVL421:
 6418               	.LM281:
 6419 28a0 D901      		movw r26,r18
 6420 28a2 9396      		adiw r26,35
 6421 28a4 8D91      		ld r24,X+
 6422 28a6 9D91      		ld r25,X+
 6423 28a8 0D90      		ld __tmp_reg__,X+
 6424 28aa BC91      		ld r27,X
 6425 28ac A02D      		mov r26,__tmp_reg__
 6426 28ae 8E83      		std Y+6,r24
 6427 28b0 9F83      		std Y+7,r25
 6428 28b2 A887      		std Y+8,r26
 6429 28b4 B987      		std Y+9,r27
 6430               	.LVL422:
 6431               	.LM282:
 6432 28b6 AC85      		ldd r26,Y+12
 6433 28b8 BD85      		ldd r27,Y+13
 6434 28ba ED91      		ld r30,X+
 6435 28bc FC91      		ld r31,X
 6436 28be 8085      		ldd r24,Z+8
 6437               	.LM283:
 6438 28c0 2E81      		ldd r18,Y+6
 6439 28c2 3F81      		ldd r19,Y+7
 6440 28c4 4885      		ldd r20,Y+8
 6441 28c6 5985      		ldd r21,Y+9
 6442               	.LVL423:
 6443 28c8 2115      		cp r18,__zero_reg__
 6444 28ca 3105      		cpc r19,__zero_reg__
 6445 28cc 4105      		cpc r20,__zero_reg__
 6446 28ce 5105      		cpc r21,__zero_reg__
 6447 28d0 01F4      		brne .L553
 6448               	.L474:
 6449               	.LM284:
 6450 28d2 8B30      		cpi r24,lo8(11)
 6451 28d4 01F4      		brne .L476
 6452               	.LM285:
 6453 28d6 AC85      		ldd r26,Y+12
 6454 28d8 BD85      		ldd r27,Y+13
 6455 28da 9A96      		adiw r26,42
 6456 28dc 8D91      		ld r24,X+
 6457 28de 9D91      		ld r25,X+
 6458 28e0 0D90      		ld __tmp_reg__,X+
 6459 28e2 BC91      		ld r27,X
 6460 28e4 A02D      		mov r26,__tmp_reg__
 6461 28e6 8E83      		std Y+6,r24
 6462 28e8 9F83      		std Y+7,r25
 6463 28ea A887      		std Y+8,r26
 6464 28ec B987      		std Y+9,r27
 6465               	.LVL424:
 6466               	.L553:
 6467 28ee 1E8A      		std Y+22,__zero_reg__
 6468 28f0 1F8A      		std Y+23,__zero_reg__
 6469 28f2 188E      		std Y+24,__zero_reg__
 6470 28f4 198E      		std Y+25,__zero_reg__
 6471 28f6 3324      		clr r3
 6472               	.LVL425:
 6473 28f8 4424      		clr r4
 6474               	.LVL426:
 6475 28fa 5524      		clr r5
 6476               	.LVL427:
 6477 28fc 6624      		clr r6
 6478               	.LVL428:
 6479 28fe DD24      		clr r13
 6480               	.LVL429:
 6481 2900 CC24      		clr r12
 6482               	.LVL430:
 6483 2902 BB24      		clr r11
 6484               	.LVL431:
 6485 2904 AA24      		clr r10
 6486               	.LVL432:
 6487 2906 2224      		clr r2
 6488               	.LVL433:
 6489 2908 9924      		clr r9
 6490               	.LVL434:
 6491 290a 8824      		clr r8
 6492               	.LVL435:
 6493 290c 7724      		clr r7
 6494               	.LVL436:
 6495 290e 1E86      		std Y+14,__zero_reg__
 6496 2910 1F86      		std Y+15,__zero_reg__
 6497 2912 188A      		std Y+16,__zero_reg__
 6498 2914 198A      		std Y+17,__zero_reg__
 6499 2916 1A8A      		std Y+18,__zero_reg__
 6500 2918 1B8A      		std Y+19,__zero_reg__
 6501 291a 1C8A      		std Y+20,__zero_reg__
 6502 291c 1D8A      		std Y+21,__zero_reg__
 6503 291e 00C0      		rjmp .L475
 6504               	.LVL437:
 6505               	.L476:
 6506               	.LM286:
 6507 2920 EC85      		ldd r30,Y+12
 6508 2922 FD85      		ldd r31,Y+13
 6509 2924 D2A0      		ldd r13,Z+34
 6510               	.LVL438:
 6511 2926 C3A0      		ldd r12,Z+35
 6512               	.LVL439:
 6513 2928 B4A0      		ldd r11,Z+36
 6514               	.LVL440:
 6515 292a A5A0      		ldd r10,Z+37
 6516               	.LVL441:
 6517 292c 26A0      		ldd r2,Z+38
 6518               	.LVL442:
 6519 292e 97A0      		ldd r9,Z+39
 6520               	.LVL443:
 6521 2930 80A4      		ldd r8,Z+40
 6522               	.LVL444:
 6523 2932 71A4      		ldd r7,Z+41
 6524               	.LVL445:
 6525               	.LM287:
 6526 2934 F28D      		ldd r31,Z+26
 6527 2936 FE87      		std Y+14,r31
 6528 2938 AC85      		ldd r26,Y+12
 6529 293a BD85      		ldd r27,Y+13
 6530 293c 5B96      		adiw r26,27
 6531 293e BC91      		ld r27,X
 6532 2940 BF87      		std Y+15,r27
 6533 2942 EC85      		ldd r30,Y+12
 6534 2944 FD85      		ldd r31,Y+13
 6535 2946 F48D      		ldd r31,Z+28
 6536 2948 F88B      		std Y+16,r31
 6537 294a AC85      		ldd r26,Y+12
 6538 294c BD85      		ldd r27,Y+13
 6539 294e 5D96      		adiw r26,29
 6540 2950 BC91      		ld r27,X
 6541 2952 B98B      		std Y+17,r27
 6542 2954 EC85      		ldd r30,Y+12
 6543 2956 FD85      		ldd r31,Y+13
 6544 2958 F68D      		ldd r31,Z+30
 6545 295a FA8B      		std Y+18,r31
 6546 295c AC85      		ldd r26,Y+12
 6547 295e BD85      		ldd r27,Y+13
 6548 2960 5F96      		adiw r26,31
 6549 2962 BC91      		ld r27,X
 6550 2964 BB8B      		std Y+19,r27
 6551 2966 EC85      		ldd r30,Y+12
 6552 2968 FD85      		ldd r31,Y+13
 6553 296a F0A1      		ldd r31,Z+32
 6554 296c FC8B      		std Y+20,r31
 6555 296e AC85      		ldd r26,Y+12
 6556 2970 BD85      		ldd r27,Y+13
 6557 2972 9196      		adiw r26,33
 6558 2974 BC91      		ld r27,X
 6559 2976 BD8B      		std Y+21,r27
 6560               	.LVL446:
 6561               	.L554:
 6562 2978 DE8A      		std Y+22,r13
 6563 297a CF8A      		std Y+23,r12
 6564 297c B88E      		std Y+24,r11
 6565 297e A98E      		std Y+25,r10
 6566 2980 322C      		mov r3,r2
 6567 2982 492C      		mov r4,r9
 6568 2984 582C      		mov r5,r8
 6569 2986 672C      		mov r6,r7
 6570               	.L475:
 6571 2988 1A86      		std Y+10,__zero_reg__
 6572               	.LVL447:
 6573               	.L552:
 6574               	.LBB75:
 6575               	.LM288:
 6576 298a EE85      		ldd r30,Y+14
 6577 298c DE16      		cp r13,r30
 6578 298e 01F0      		breq .+2
 6579 2990 00C0      		rjmp .L477
 6580 2992 FF85      		ldd r31,Y+15
 6581 2994 CF16      		cp r12,r31
 6582 2996 01F0      		breq .+2
 6583 2998 00C0      		rjmp .L477
 6584 299a 2889      		ldd r18,Y+16
 6585 299c B216      		cp r11,r18
 6586 299e 01F0      		breq .+2
 6587 29a0 00C0      		rjmp .L477
 6588 29a2 3989      		ldd r19,Y+17
 6589 29a4 A316      		cp r10,r19
 6590 29a6 01F0      		breq .+2
 6591 29a8 00C0      		rjmp .L477
 6592 29aa 4A89      		ldd r20,Y+18
 6593 29ac 2416      		cp r2,r20
 6594 29ae 01F0      		breq .+2
 6595 29b0 00C0      		rjmp .L477
 6596 29b2 5B89      		ldd r21,Y+19
 6597 29b4 9516      		cp r9,r21
 6598 29b6 01F0      		breq .+2
 6599 29b8 00C0      		rjmp .L477
 6600 29ba 8C89      		ldd r24,Y+20
 6601 29bc 8816      		cp r8,r24
 6602 29be 01F0      		breq .+2
 6603 29c0 00C0      		rjmp .L477
 6604 29c2 9D89      		ldd r25,Y+21
 6605 29c4 7916      		cp r7,r25
 6606 29c6 01F0      		breq .+2
 6607 29c8 00C0      		rjmp .L477
 6608               	.LM289:
 6609 29ca 2E81      		ldd r18,Y+6
 6610 29cc 3F81      		ldd r19,Y+7
 6611 29ce 4885      		ldd r20,Y+8
 6612 29d0 5985      		ldd r21,Y+9
 6613 29d2 2115      		cp r18,__zero_reg__
 6614 29d4 3105      		cpc r19,__zero_reg__
 6615 29d6 4105      		cpc r20,__zero_reg__
 6616 29d8 5105      		cpc r21,__zero_reg__
 6617 29da 01F4      		brne .+2
 6618 29dc 00C0      		rjmp .L473
 6619               	.LM290:
 6620 29de 8D2D      		mov r24,r13
 6621 29e0 8C29      		or r24,r12
 6622               	.LVL448:
 6623 29e2 8B29      		or r24,r11
 6624 29e4 8A29      		or r24,r10
 6625 29e6 8229      		or r24,r2
 6626 29e8 8929      		or r24,r9
 6627 29ea 8829      		or r24,r8
 6628 29ec 8729      		or r24,r7
 6629 29ee 01F4      		brne .+2
 6630 29f0 00C0      		rjmp .L478
 6631               	.LBB76:
 6632               	.LM291:
 6633 29f2 8C85      		ldd r24,Y+12
 6634 29f4 9D85      		ldd r25,Y+13
 6635               	.LVL449:
 6636 29f6 BA01      		movw r22,r20
 6637 29f8 A901      		movw r20,r18
 6638 29fa 0E94 0000 		call fat_get_next_cluster
 6639               	.LM292:
 6640 29fe 6115      		cp r22,__zero_reg__
 6641 2a00 7105      		cpc r23,__zero_reg__
 6642 2a02 8105      		cpc r24,__zero_reg__
 6643 2a04 9105      		cpc r25,__zero_reg__
 6644               	.LVL450:
 6645 2a06 01F0      		breq .+2
 6646 2a08 00C0      		rjmp .L479
 6647               	.LM293:
 6648 2a0a 8C85      		ldd r24,Y+12
 6649 2a0c 9D85      		ldd r25,Y+13
 6650 2a0e 4E81      		ldd r20,Y+6
 6651 2a10 5F81      		ldd r21,Y+7
 6652 2a12 6885      		ldd r22,Y+8
 6653 2a14 7985      		ldd r23,Y+9
 6654 2a16 01E0      		ldi r16,lo8(1)
 6655 2a18 10E0      		ldi r17,hi8(1)
 6656 2a1a 20E0      		ldi r18,hlo8(1)
 6657 2a1c 30E0      		ldi r19,hhi8(1)
 6658 2a1e 0E94 0000 		call fat_append_clusters
 6659               	.LVL451:
 6660 2a22 6A83      		std Y+2,r22
 6661 2a24 7B83      		std Y+3,r23
 6662 2a26 8C83      		std Y+4,r24
 6663 2a28 9D83      		std Y+5,r25
 6664               	.LVL452:
 6665               	.LM294:
 6666 2a2a 6115      		cp r22,__zero_reg__
 6667 2a2c 7105      		cpc r23,__zero_reg__
 6668 2a2e 8105      		cpc r24,__zero_reg__
 6669 2a30 9105      		cpc r25,__zero_reg__
 6670 2a32 01F4      		brne .+2
 6671 2a34 00C0      		rjmp .L473
 6672               	.LM295:
 6673 2a36 DC01      		movw r26,r24
 6674 2a38 CB01      		movw r24,r22
 6675 2a3a 0297      		sbiw r24,2
 6676 2a3c A109      		sbc r26,__zero_reg__
 6677 2a3e B109      		sbc r27,__zero_reg__
 6678 2a40 5C01      		movw r10,r24
 6679 2a42 6D01      		movw r12,r26
 6680               	.LVL453:
 6681 2a44 0296      		adiw r24,2
 6682 2a46 A11D      		adc r26,__zero_reg__
 6683 2a48 B11D      		adc r27,__zero_reg__
 6684 2a4a 8A83      		std Y+2,r24
 6685 2a4c 9B83      		std Y+3,r25
 6686 2a4e AC83      		std Y+4,r26
 6687 2a50 BD83      		std Y+5,r27
 6688               	.LVL454:
 6689 2a52 AC85      		ldd r26,Y+12
 6690 2a54 BD85      		ldd r27,Y+13
 6691 2a56 5896      		adiw r26,24
 6692 2a58 2D90      		ld r2,X+
 6693 2a5a 3C90      		ld r3,X
 6694 2a5c 5997      		sbiw r26,24+1
 6695               	.LVL455:
 6696 2a5e 9501      		movw r18,r10
 6697 2a60 A601      		movw r20,r12
 6698               	.LVL456:
 6699 2a62 60E0      		ldi r22,lo8(0)
 6700 2a64 70E0      		ldi r23,lo8(0)
 6701 2a66 80E0      		ldi r24,lo8(0)
 6702 2a68 90E0      		ldi r25,lo8(0)
 6703 2a6a 5101      		movw r10,r2
 6704 2a6c CC24      		clr r12
 6705 2a6e DD24      		clr r13
 6706 2a70 EE24      		clr r14
 6707 2a72 FF24      		clr r15
 6708 2a74 00E0      		ldi r16,lo8(0)
 6709 2a76 10E0      		ldi r17,lo8(0)
 6710 2a78 0E94 0000 		call __muldi3
 6711 2a7c C92E      		mov r12,r25
 6712 2a7e EC85      		ldd r30,Y+12
 6713 2a80 FD85      		ldd r31,Y+13
 6714 2a82 B28D      		ldd r27,Z+26
 6715 2a84 B38C      		ldd r11,Z+27
 6716               	.LVL457:
 6717 2a86 A48D      		ldd r26,Z+28
 6718 2a88 058D      		ldd r16,Z+29
 6719 2a8a F68C      		ldd r15,Z+30
 6720 2a8c E78C      		ldd r14,Z+31
 6721 2a8e D0A0      		ldd r13,Z+32
 6722 2a90 11A1      		ldd r17,Z+33
 6723 2a92 B20F      		add r27,r18
 6724 2a94 E1E0      		ldi r30,lo8(1)
 6725 2a96 B217      		cp r27,r18
 6726 2a98 00F0      		brlo .L480
 6727 2a9a E0E0      		ldi r30,lo8(0)
 6728               	.L480:
 6729 2a9c 232F      		mov r18,r19
 6730 2a9e 2B0D      		add r18,r11
 6731 2aa0 F1E0      		ldi r31,lo8(1)
 6732 2aa2 2317      		cp r18,r19
 6733 2aa4 00F0      		brlo .L481
 6734 2aa6 F0E0      		ldi r31,lo8(0)
 6735               	.L481:
 6736 2aa8 3E2F      		mov r19,r30
 6737 2aaa 320F      		add r19,r18
 6738 2aac E1E0      		ldi r30,lo8(1)
 6739 2aae 3217      		cp r19,r18
 6740 2ab0 00F0      		brlo .L482
 6741 2ab2 E0E0      		ldi r30,lo8(0)
 6742               	.L482:
 6743 2ab4 FE2B      		or r31,r30
 6744 2ab6 242F      		mov r18,r20
 6745 2ab8 2A0F      		add r18,r26
 6746 2aba A1E0      		ldi r26,lo8(1)
 6747 2abc 2417      		cp r18,r20
 6748 2abe 00F0      		brlo .L483
 6749 2ac0 A0E0      		ldi r26,lo8(0)
 6750               	.L483:
 6751 2ac2 4F2F      		mov r20,r31
 6752 2ac4 420F      		add r20,r18
 6753 2ac6 E1E0      		ldi r30,lo8(1)
 6754 2ac8 4217      		cp r20,r18
 6755 2aca 00F0      		brlo .L484
 6756 2acc E0E0      		ldi r30,lo8(0)
 6757               	.L484:
 6758 2ace AE2B      		or r26,r30
 6759 2ad0 252F      		mov r18,r21
 6760 2ad2 200F      		add r18,r16
 6761 2ad4 F1E0      		ldi r31,lo8(1)
 6762 2ad6 2517      		cp r18,r21
 6763 2ad8 00F0      		brlo .L485
 6764 2ada F0E0      		ldi r31,lo8(0)
 6765               	.L485:
 6766 2adc 5A2F      		mov r21,r26
 6767 2ade 520F      		add r21,r18
 6768 2ae0 E1E0      		ldi r30,lo8(1)
 6769 2ae2 5217      		cp r21,r18
 6770 2ae4 00F0      		brlo .L486
 6771 2ae6 E0E0      		ldi r30,lo8(0)
 6772               	.L486:
 6773 2ae8 FE2B      		or r31,r30
 6774 2aea 262F      		mov r18,r22
 6775 2aec 2F0D      		add r18,r15
 6776 2aee A1E0      		ldi r26,lo8(1)
 6777 2af0 2617      		cp r18,r22
 6778 2af2 00F0      		brlo .L487
 6779 2af4 A0E0      		ldi r26,lo8(0)
 6780               	.L487:
 6781 2af6 6F2F      		mov r22,r31
 6782 2af8 620F      		add r22,r18
 6783 2afa E1E0      		ldi r30,lo8(1)
 6784 2afc 6217      		cp r22,r18
 6785 2afe 00F0      		brlo .L488
 6786 2b00 E0E0      		ldi r30,lo8(0)
 6787               	.L488:
 6788 2b02 AE2B      		or r26,r30
 6789 2b04 272F      		mov r18,r23
 6790 2b06 2E0D      		add r18,r14
 6791 2b08 F1E0      		ldi r31,lo8(1)
 6792 2b0a 2717      		cp r18,r23
 6793 2b0c 00F0      		brlo .L489
 6794 2b0e F0E0      		ldi r31,lo8(0)
 6795               	.L489:
 6796 2b10 7A2F      		mov r23,r26
 6797 2b12 720F      		add r23,r18
 6798 2b14 E1E0      		ldi r30,lo8(1)
 6799 2b16 7217      		cp r23,r18
 6800 2b18 00F0      		brlo .L490
 6801 2b1a E0E0      		ldi r30,lo8(0)
 6802               	.L490:
 6803 2b1c FE2B      		or r31,r30
 6804 2b1e 282F      		mov r18,r24
 6805 2b20 2D0D      		add r18,r13
 6806 2b22 E1E0      		ldi r30,lo8(1)
 6807 2b24 2817      		cp r18,r24
 6808 2b26 00F0      		brlo .L491
 6809 2b28 E0E0      		ldi r30,lo8(0)
 6810               	.L491:
 6811 2b2a 8F2F      		mov r24,r31
 6812 2b2c 820F      		add r24,r18
 6813 2b2e 91E0      		ldi r25,lo8(1)
 6814 2b30 8217      		cp r24,r18
 6815 2b32 00F0      		brlo .L492
 6816 2b34 90E0      		ldi r25,lo8(0)
 6817               	.L492:
 6818 2b36 6E2E      		mov r6,r30
 6819 2b38 692A      		or r6,r25
 6820 2b3a 1C0D      		add r17,r12
 6821 2b3c BE8B      		std Y+22,r27
 6822 2b3e 3F8B      		std Y+23,r19
 6823 2b40 488F      		std Y+24,r20
 6824 2b42 598F      		std Y+25,r21
 6825 2b44 362E      		mov r3,r22
 6826 2b46 472E      		mov r4,r23
 6827 2b48 582E      		mov r5,r24
 6828 2b4a 610E      		add r6,r17
 6829               	.LM296:
 6830 2b4c 8C85      		ldd r24,Y+12
 6831 2b4e 9D85      		ldd r25,Y+13
 6832 2b50 4A81      		ldd r20,Y+2
 6833 2b52 5B81      		ldd r21,Y+3
 6834 2b54 6C81      		ldd r22,Y+4
 6835 2b56 7D81      		ldd r23,Y+5
 6836 2b58 0E94 0000 		call fat_clear_cluster
 6837 2b5c 00C0      		rjmp .L493
 6838               	.LVL458:
 6839               	.L479:
 6840               	.LM297:
 6841 2b5e 6E83      		std Y+6,r22
 6842 2b60 7F83      		std Y+7,r23
 6843 2b62 8887      		std Y+8,r24
 6844 2b64 9987      		std Y+9,r25
 6845               	.LVL459:
 6846               	.L478:
 6847               	.LBE76:
 6848               	.LBB77:
 6849               	.LBB78:
 6850               	.LM298:
 6851 2b66 2E81      		ldd r18,Y+6
 6852 2b68 3F81      		ldd r19,Y+7
 6853 2b6a 4885      		ldd r20,Y+8
 6854 2b6c 5985      		ldd r21,Y+9
 6855 2b6e 2230      		cpi r18,lo8(2)
 6856 2b70 3105      		cpc r19,__zero_reg__
 6857 2b72 4105      		cpc r20,__zero_reg__
 6858 2b74 5105      		cpc r21,__zero_reg__
 6859 2b76 00F4      		brsh .L494
 6860 2b78 DD24      		clr r13
 6861               	.LVL460:
 6862 2b7a CC24      		clr r12
 6863 2b7c BB24      		clr r11
 6864 2b7e AA24      		clr r10
 6865 2b80 2224      		clr r2
 6866 2b82 9924      		clr r9
 6867 2b84 8824      		clr r8
 6868 2b86 7724      		clr r7
 6869 2b88 00C0      		rjmp .L495
 6870               	.LVL461:
 6871               	.L494:
 6872               	.LM299:
 6873 2b8a 8E81      		ldd r24,Y+6
 6874 2b8c 9F81      		ldd r25,Y+7
 6875 2b8e A885      		ldd r26,Y+8
 6876 2b90 B985      		ldd r27,Y+9
 6877               	.LVL462:
 6878 2b92 0297      		sbiw r24,2
 6879 2b94 A109      		sbc r26,__zero_reg__
 6880 2b96 B109      		sbc r27,__zero_reg__
 6881 2b98 5C01      		movw r10,r24
 6882 2b9a 6D01      		movw r12,r26
 6883               	.LVL463:
 6884 2b9c 0296      		adiw r24,2
 6885 2b9e A11D      		adc r26,__zero_reg__
 6886 2ba0 B11D      		adc r27,__zero_reg__
 6887 2ba2 8E83      		std Y+6,r24
 6888 2ba4 9F83      		std Y+7,r25
 6889 2ba6 A887      		std Y+8,r26
 6890 2ba8 B987      		std Y+9,r27
 6891               	.LVL464:
 6892 2baa AC85      		ldd r26,Y+12
 6893 2bac BD85      		ldd r27,Y+13
 6894 2bae 5896      		adiw r26,24
 6895 2bb0 2D90      		ld r2,X+
 6896 2bb2 3C90      		ld r3,X
 6897 2bb4 5997      		sbiw r26,24+1
 6898               	.LVL465:
 6899 2bb6 9501      		movw r18,r10
 6900 2bb8 A601      		movw r20,r12
 6901               	.LVL466:
 6902 2bba 60E0      		ldi r22,lo8(0)
 6903               	.LVL467:
 6904 2bbc 70E0      		ldi r23,lo8(0)
 6905 2bbe 80E0      		ldi r24,lo8(0)
 6906 2bc0 90E0      		ldi r25,lo8(0)
 6907 2bc2 5101      		movw r10,r2
 6908 2bc4 CC24      		clr r12
 6909 2bc6 DD24      		clr r13
 6910 2bc8 EE24      		clr r14
 6911 2bca FF24      		clr r15
 6912 2bcc 00E0      		ldi r16,lo8(0)
 6913 2bce 10E0      		ldi r17,lo8(0)
 6914 2bd0 0E94 0000 		call __muldi3
 6915 2bd4 C92E      		mov r12,r25
 6916 2bd6 EC85      		ldd r30,Y+12
 6917 2bd8 FD85      		ldd r31,Y+13
 6918 2bda B28D      		ldd r27,Z+26
 6919 2bdc B38C      		ldd r11,Z+27
 6920               	.LVL468:
 6921 2bde A48D      		ldd r26,Z+28
 6922 2be0 058D      		ldd r16,Z+29
 6923 2be2 F68C      		ldd r15,Z+30
 6924 2be4 E78C      		ldd r14,Z+31
 6925 2be6 D0A0      		ldd r13,Z+32
 6926 2be8 11A1      		ldd r17,Z+33
 6927 2bea B20F      		add r27,r18
 6928 2bec E1E0      		ldi r30,lo8(1)
 6929 2bee B217      		cp r27,r18
 6930 2bf0 00F0      		brlo .L496
 6931 2bf2 E0E0      		ldi r30,lo8(0)
 6932               	.L496:
 6933 2bf4 232F      		mov r18,r19
 6934 2bf6 2B0D      		add r18,r11
 6935 2bf8 F1E0      		ldi r31,lo8(1)
 6936 2bfa 2317      		cp r18,r19
 6937 2bfc 00F0      		brlo .L497
 6938 2bfe F0E0      		ldi r31,lo8(0)
 6939               	.L497:
 6940 2c00 3E2F      		mov r19,r30
 6941 2c02 320F      		add r19,r18
 6942 2c04 E1E0      		ldi r30,lo8(1)
 6943 2c06 3217      		cp r19,r18
 6944 2c08 00F0      		brlo .L498
 6945 2c0a E0E0      		ldi r30,lo8(0)
 6946               	.L498:
 6947 2c0c FE2B      		or r31,r30
 6948 2c0e 242F      		mov r18,r20
 6949 2c10 2A0F      		add r18,r26
 6950 2c12 A1E0      		ldi r26,lo8(1)
 6951 2c14 2417      		cp r18,r20
 6952 2c16 00F0      		brlo .L499
 6953 2c18 A0E0      		ldi r26,lo8(0)
 6954               	.L499:
 6955 2c1a 4F2F      		mov r20,r31
 6956 2c1c 420F      		add r20,r18
 6957 2c1e E1E0      		ldi r30,lo8(1)
 6958 2c20 4217      		cp r20,r18
 6959 2c22 00F0      		brlo .L500
 6960 2c24 E0E0      		ldi r30,lo8(0)
 6961               	.L500:
 6962 2c26 AE2B      		or r26,r30
 6963 2c28 252F      		mov r18,r21
 6964 2c2a 200F      		add r18,r16
 6965 2c2c F1E0      		ldi r31,lo8(1)
 6966 2c2e 2517      		cp r18,r21
 6967 2c30 00F0      		brlo .L501
 6968 2c32 F0E0      		ldi r31,lo8(0)
 6969               	.L501:
 6970 2c34 5A2F      		mov r21,r26
 6971 2c36 520F      		add r21,r18
 6972 2c38 E1E0      		ldi r30,lo8(1)
 6973 2c3a 5217      		cp r21,r18
 6974 2c3c 00F0      		brlo .L502
 6975 2c3e E0E0      		ldi r30,lo8(0)
 6976               	.L502:
 6977 2c40 FE2B      		or r31,r30
 6978 2c42 262F      		mov r18,r22
 6979 2c44 2F0D      		add r18,r15
 6980 2c46 A1E0      		ldi r26,lo8(1)
 6981 2c48 2617      		cp r18,r22
 6982 2c4a 00F0      		brlo .L503
 6983 2c4c A0E0      		ldi r26,lo8(0)
 6984               	.L503:
 6985 2c4e 6F2F      		mov r22,r31
 6986 2c50 620F      		add r22,r18
 6987 2c52 E1E0      		ldi r30,lo8(1)
 6988 2c54 6217      		cp r22,r18
 6989 2c56 00F0      		brlo .L504
 6990 2c58 E0E0      		ldi r30,lo8(0)
 6991               	.L504:
 6992 2c5a AE2B      		or r26,r30
 6993 2c5c 272F      		mov r18,r23
 6994 2c5e 2E0D      		add r18,r14
 6995 2c60 F1E0      		ldi r31,lo8(1)
 6996 2c62 2717      		cp r18,r23
 6997 2c64 00F0      		brlo .L505
 6998 2c66 F0E0      		ldi r31,lo8(0)
 6999               	.L505:
 7000 2c68 7A2F      		mov r23,r26
 7001 2c6a 720F      		add r23,r18
 7002 2c6c E1E0      		ldi r30,lo8(1)
 7003 2c6e 7217      		cp r23,r18
 7004 2c70 00F0      		brlo .L506
 7005 2c72 E0E0      		ldi r30,lo8(0)
 7006               	.L506:
 7007 2c74 FE2B      		or r31,r30
 7008 2c76 282F      		mov r18,r24
 7009 2c78 2D0D      		add r18,r13
 7010 2c7a E1E0      		ldi r30,lo8(1)
 7011 2c7c 2817      		cp r18,r24
 7012 2c7e 00F0      		brlo .L507
 7013 2c80 E0E0      		ldi r30,lo8(0)
 7014               	.L507:
 7015 2c82 8F2F      		mov r24,r31
 7016 2c84 820F      		add r24,r18
 7017 2c86 91E0      		ldi r25,lo8(1)
 7018 2c88 8217      		cp r24,r18
 7019 2c8a 00F0      		brlo .L508
 7020 2c8c 90E0      		ldi r25,lo8(0)
 7021               	.L508:
 7022 2c8e 7E2E      		mov r7,r30
 7023 2c90 792A      		or r7,r25
 7024 2c92 1C0D      		add r17,r12
 7025 2c94 DB2E      		mov r13,r27
 7026               	.LVL469:
 7027 2c96 C32E      		mov r12,r19
 7028               	.LVL470:
 7029 2c98 B42E      		mov r11,r20
 7030               	.LVL471:
 7031 2c9a A52E      		mov r10,r21
 7032               	.LVL472:
 7033 2c9c 262E      		mov r2,r22
 7034               	.LVL473:
 7035 2c9e 972E      		mov r9,r23
 7036 2ca0 882E      		mov r8,r24
 7037 2ca2 710E      		add r7,r17
 7038               	.LVL474:
 7039               	.L495:
 7040               	.LBE78:
 7041               	.LBE77:
 7042               	.LM300:
 7043 2ca4 AC85      		ldd r26,Y+12
 7044 2ca6 BD85      		ldd r27,Y+13
 7045 2ca8 5896      		adiw r26,24
 7046 2caa 8D91      		ld r24,X+
 7047 2cac 9C91      		ld r25,X
 7048 2cae 5997      		sbiw r26,24+1
 7049 2cb0 9C01      		movw r18,r24
 7050 2cb2 FD2D      		mov r31,r13
 7051 2cb4 F80F      		add r31,r24
 7052 2cb6 E1E0      		ldi r30,lo8(1)
 7053 2cb8 FD15      		cp r31,r13
 7054 2cba 00F0      		brlo .L509
 7055 2cbc E0E0      		ldi r30,lo8(0)
 7056               	.L509:
 7057 2cbe 8C2D      		mov r24,r12
 7058 2cc0 830F      		add r24,r19
 7059 2cc2 21E0      		ldi r18,lo8(1)
 7060 2cc4 8C15      		cp r24,r12
 7061 2cc6 00F0      		brlo .L510
 7062 2cc8 20E0      		ldi r18,lo8(0)
 7063               	.L510:
 7064 2cca 6E2F      		mov r22,r30
 7065               	.LVL475:
 7066 2ccc 680F      		add r22,r24
 7067 2cce 91E0      		ldi r25,lo8(1)
 7068 2cd0 6817      		cp r22,r24
 7069 2cd2 00F0      		brlo .L511
 7070 2cd4 90E0      		ldi r25,lo8(0)
 7071               	.L511:
 7072 2cd6 922B      		or r25,r18
 7073 2cd8 9B0D      		add r25,r11
 7074 2cda 81E0      		ldi r24,lo8(1)
 7075 2cdc 9B15      		cp r25,r11
 7076 2cde 00F0      		brlo .L513
 7077 2ce0 80E0      		ldi r24,lo8(0)
 7078               	.L513:
 7079 2ce2 582F      		mov r21,r24
 7080 2ce4 5A0D      		add r21,r10
 7081 2ce6 81E0      		ldi r24,lo8(1)
 7082 2ce8 5A15      		cp r21,r10
 7083 2cea 00F0      		brlo .L515
 7084 2cec 80E0      		ldi r24,lo8(0)
 7085               	.L515:
 7086 2cee 482F      		mov r20,r24
 7087 2cf0 420D      		add r20,r2
 7088 2cf2 81E0      		ldi r24,lo8(1)
 7089 2cf4 4215      		cp r20,r2
 7090 2cf6 00F0      		brlo .L517
 7091 2cf8 80E0      		ldi r24,lo8(0)
 7092               	.L517:
 7093 2cfa 382F      		mov r19,r24
 7094 2cfc 390D      		add r19,r9
 7095 2cfe 81E0      		ldi r24,lo8(1)
 7096 2d00 3915      		cp r19,r9
 7097 2d02 00F0      		brlo .L519
 7098 2d04 80E0      		ldi r24,lo8(0)
 7099               	.L519:
 7100 2d06 880D      		add r24,r8
 7101 2d08 21E0      		ldi r18,lo8(1)
 7102 2d0a 8815      		cp r24,r8
 7103 2d0c 00F0      		brlo .L521
 7104 2d0e 20E0      		ldi r18,lo8(0)
 7105               	.L521:
 7106 2d10 FE87      		std Y+14,r31
 7107 2d12 6F87      		std Y+15,r22
 7108 2d14 988B      		std Y+16,r25
 7109 2d16 598B      		std Y+17,r21
 7110 2d18 4A8B      		std Y+18,r20
 7111 2d1a 3B8B      		std Y+19,r19
 7112 2d1c 8C8B      		std Y+20,r24
 7113 2d1e 270D      		add r18,r7
 7114 2d20 2D8B      		std Y+21,r18
 7115 2d22 DE8A      		std Y+22,r13
 7116 2d24 CF8A      		std Y+23,r12
 7117 2d26 B88E      		std Y+24,r11
 7118 2d28 A98E      		std Y+25,r10
 7119 2d2a 322C      		mov r3,r2
 7120 2d2c 492C      		mov r4,r9
 7121 2d2e 582C      		mov r5,r8
 7122 2d30 672C      		mov r6,r7
 7123 2d32 1A86      		std Y+10,__zero_reg__
 7124               	.LVL476:
 7125               	.L477:
 7126               	.LM301:
 7127 2d34 AC85      		ldd r26,Y+12
 7128 2d36 BD85      		ldd r27,Y+13
 7129 2d38 ED91      		ld r30,X+
 7130 2d3a FC91      		ld r31,X
 7131 2d3c 0190      		ld __tmp_reg__,Z+
 7132 2d3e F081      		ld r31,Z
 7133 2d40 E02D      		mov r30,__tmp_reg__
 7134 2d42 2D2D      		mov r18,r13
 7135 2d44 3C2D      		mov r19,r12
 7136 2d46 4B2D      		mov r20,r11
 7137 2d48 5A2D      		mov r21,r10
 7138 2d4a 622D      		mov r22,r2
 7139 2d4c 792D      		mov r23,r9
 7140 2d4e 882D      		mov r24,r8
 7141 2d50 972D      		mov r25,r7
 7142 2d52 8E01      		movw r16,r28
 7143 2d54 0F5F      		subi r16,lo8(-(1))
 7144 2d56 1F4F      		sbci r17,hi8(-(1))
 7145 2d58 B1E0      		ldi r27,lo8(1)
 7146 2d5a EB2E      		mov r14,r27
 7147 2d5c F12C      		mov r15,__zero_reg__
 7148 2d5e 0995      		icall
 7149 2d60 8823      		tst r24
 7150 2d62 01F4      		brne .+2
 7151 2d64 00C0      		rjmp .L473
 7152               	.LM302:
 7153 2d66 8981      		ldd r24,Y+1
 7154 2d68 853E      		cpi r24,lo8(-27)
 7155 2d6a 01F0      		breq .L522
 7156 2d6c 8823      		tst r24
 7157 2d6e 01F4      		brne .L523
 7158               	.L522:
 7159               	.LM303:
 7160 2d70 BA85      		ldd r27,Y+10
 7161 2d72 BF5F      		subi r27,lo8(-(1))
 7162 2d74 BA87      		std Y+10,r27
 7163               	.LVL477:
 7164               	.LM304:
 7165 2d76 EB85      		ldd r30,Y+11
 7166 2d78 BE17      		cp r27,r30
 7167 2d7a 00F0      		brlo .+2
 7168 2d7c 00C0      		rjmp .L493
 7169               	.LM305:
 7170 2d7e 7D2D      		mov r23,r13
 7171 2d80 705E      		subi r23,lo8(-(32))
 7172 2d82 81E0      		ldi r24,lo8(1)
 7173 2d84 7D15      		cp r23,r13
 7174 2d86 00F0      		brlo .L524
 7175 2d88 80E0      		ldi r24,lo8(0)
 7176               	.L524:
 7177 2d8a 682F      		mov r22,r24
 7178 2d8c 6C0D      		add r22,r12
 7179 2d8e 81E0      		ldi r24,lo8(1)
 7180 2d90 6C15      		cp r22,r12
 7181 2d92 00F0      		brlo .L526
 7182 2d94 80E0      		ldi r24,lo8(0)
 7183               	.L526:
 7184 2d96 582F      		mov r21,r24
 7185 2d98 5B0D      		add r21,r11
 7186 2d9a 81E0      		ldi r24,lo8(1)
 7187 2d9c 5B15      		cp r21,r11
 7188 2d9e 00F0      		brlo .L528
 7189 2da0 80E0      		ldi r24,lo8(0)
 7190               	.L528:
 7191 2da2 482F      		mov r20,r24
 7192 2da4 4A0D      		add r20,r10
 7193 2da6 81E0      		ldi r24,lo8(1)
 7194 2da8 4A15      		cp r20,r10
 7195 2daa 00F0      		brlo .L530
 7196 2dac 80E0      		ldi r24,lo8(0)
 7197               	.L530:
 7198 2dae 382F      		mov r19,r24
 7199 2db0 320D      		add r19,r2
 7200 2db2 81E0      		ldi r24,lo8(1)
 7201 2db4 3215      		cp r19,r2
 7202 2db6 00F0      		brlo .L532
 7203 2db8 80E0      		ldi r24,lo8(0)
 7204               	.L532:
 7205 2dba 282F      		mov r18,r24
 7206 2dbc 290D      		add r18,r9
 7207 2dbe 81E0      		ldi r24,lo8(1)
 7208 2dc0 2915      		cp r18,r9
 7209 2dc2 00F0      		brlo .L534
 7210 2dc4 80E0      		ldi r24,lo8(0)
 7211               	.L534:
 7212 2dc6 880D      		add r24,r8
 7213 2dc8 91E0      		ldi r25,lo8(1)
 7214 2dca 8815      		cp r24,r8
 7215 2dcc 00F0      		brlo .L536
 7216 2dce 90E0      		ldi r25,lo8(0)
 7217               	.L536:
 7218 2dd0 6B01      		movw r12,r22
 7219               	.LVL478:
 7220 2dd2 5A01      		movw r10,r20
 7221               	.LVL479:
 7222 2dd4 232E      		mov r2,r19
 7223 2dd6 922E      		mov r9,r18
 7224 2dd8 882E      		mov r8,r24
 7225 2dda 790E      		add r7,r25
 7226 2ddc 00C0      		rjmp .L552
 7227               	.LVL480:
 7228               	.L523:
 7229               	.LM306:
 7230 2dde 7D2D      		mov r23,r13
 7231 2de0 705E      		subi r23,lo8(-(32))
 7232 2de2 81E0      		ldi r24,lo8(1)
 7233 2de4 7D15      		cp r23,r13
 7234 2de6 00F0      		brlo .L538
 7235 2de8 80E0      		ldi r24,lo8(0)
 7236               	.L538:
 7237 2dea 682F      		mov r22,r24
 7238 2dec 6C0D      		add r22,r12
 7239 2dee 81E0      		ldi r24,lo8(1)
 7240 2df0 6C15      		cp r22,r12
 7241 2df2 00F0      		brlo .L540
 7242 2df4 80E0      		ldi r24,lo8(0)
 7243               	.L540:
 7244 2df6 582F      		mov r21,r24
 7245 2df8 5B0D      		add r21,r11
 7246 2dfa 81E0      		ldi r24,lo8(1)
 7247 2dfc 5B15      		cp r21,r11
 7248 2dfe 00F0      		brlo .L542
 7249 2e00 80E0      		ldi r24,lo8(0)
 7250               	.L542:
 7251 2e02 482F      		mov r20,r24
 7252 2e04 4A0D      		add r20,r10
 7253 2e06 81E0      		ldi r24,lo8(1)
 7254 2e08 4A15      		cp r20,r10
 7255 2e0a 00F0      		brlo .L544
 7256 2e0c 80E0      		ldi r24,lo8(0)
 7257               	.L544:
 7258 2e0e 382F      		mov r19,r24
 7259 2e10 320D      		add r19,r2
 7260 2e12 81E0      		ldi r24,lo8(1)
 7261 2e14 3215      		cp r19,r2
 7262 2e16 00F0      		brlo .L546
 7263 2e18 80E0      		ldi r24,lo8(0)
 7264               	.L546:
 7265 2e1a 282F      		mov r18,r24
 7266 2e1c 290D      		add r18,r9
 7267 2e1e 81E0      		ldi r24,lo8(1)
 7268 2e20 2915      		cp r18,r9
 7269 2e22 00F0      		brlo .L548
 7270 2e24 80E0      		ldi r24,lo8(0)
 7271               	.L548:
 7272 2e26 880D      		add r24,r8
 7273 2e28 91E0      		ldi r25,lo8(1)
 7274 2e2a 8815      		cp r24,r8
 7275 2e2c 00F0      		brlo .L550
 7276 2e2e 90E0      		ldi r25,lo8(0)
 7277               	.L550:
 7278 2e30 6B01      		movw r12,r22
 7279               	.LVL481:
 7280 2e32 5A01      		movw r10,r20
 7281               	.LVL482:
 7282 2e34 232E      		mov r2,r19
 7283 2e36 922E      		mov r9,r18
 7284 2e38 882E      		mov r8,r24
 7285 2e3a 790E      		add r7,r25
 7286 2e3c 00C0      		rjmp .L554
 7287               	.LVL483:
 7288               	.L473:
 7289 2e3e 1E8A      		std Y+22,__zero_reg__
 7290 2e40 1F8A      		std Y+23,__zero_reg__
 7291 2e42 188E      		std Y+24,__zero_reg__
 7292 2e44 198E      		std Y+25,__zero_reg__
 7293 2e46 3324      		clr r3
 7294 2e48 4424      		clr r4
 7295 2e4a 5524      		clr r5
 7296 2e4c 6624      		clr r6
 7297               	.L493:
 7298               	.LBE75:
 7299               	.LM307:
 7300 2e4e 2E89      		ldd r18,Y+22
 7301               	.LVL484:
 7302 2e50 3F89      		ldd r19,Y+23
 7303 2e52 488D      		ldd r20,Y+24
 7304               	.LVL485:
 7305 2e54 598D      		ldd r21,Y+25
 7306 2e56 632D      		mov r22,r3
 7307               	.LVL486:
 7308 2e58 742D      		mov r23,r4
 7309 2e5a 852D      		mov r24,r5
 7310 2e5c 962D      		mov r25,r6
 7311               	/* epilogue start */
 7312 2e5e 6996      		adiw r28,25
 7313 2e60 0FB6      		in __tmp_reg__,__SREG__
 7314 2e62 F894      		cli
 7315 2e64 DEBF      		out __SP_H__,r29
 7316 2e66 0FBE      		out __SREG__,__tmp_reg__
 7317 2e68 CDBF      		out __SP_L__,r28
 7318 2e6a CF91      		pop r28
 7319 2e6c DF91      		pop r29
 7320 2e6e 1F91      		pop r17
 7321 2e70 0F91      		pop r16
 7322 2e72 FF90      		pop r15
 7323 2e74 EF90      		pop r14
 7324 2e76 DF90      		pop r13
 7325               	.LVL487:
 7326 2e78 CF90      		pop r12
 7327               	.LVL488:
 7328 2e7a BF90      		pop r11
 7329               	.LVL489:
 7330 2e7c AF90      		pop r10
 7331               	.LVL490:
 7332 2e7e 9F90      		pop r9
 7333               	.LVL491:
 7334 2e80 8F90      		pop r8
 7335               	.LVL492:
 7336 2e82 7F90      		pop r7
 7337               	.LVL493:
 7338 2e84 6F90      		pop r6
 7339               	.LVL494:
 7340 2e86 5F90      		pop r5
 7341               	.LVL495:
 7342 2e88 4F90      		pop r4
 7343               	.LVL496:
 7344 2e8a 3F90      		pop r3
 7345               	.LVL497:
 7346 2e8c 2F90      		pop r2
 7347               	.LVL498:
 7348 2e8e 0895      		ret
 7349               	.LFE25:
 7352               	fat_write_dir_entry:
 7353               	.LFB26:
 7354               	.LM308:
 7355               	.LVL499:
 7356 2e90 2F92      		push r2
 7357 2e92 3F92      		push r3
 7358 2e94 4F92      		push r4
 7359 2e96 5F92      		push r5
 7360 2e98 6F92      		push r6
 7361 2e9a 7F92      		push r7
 7362 2e9c 8F92      		push r8
 7363 2e9e 9F92      		push r9
 7364 2ea0 AF92      		push r10
 7365 2ea2 BF92      		push r11
 7366 2ea4 CF92      		push r12
 7367 2ea6 DF92      		push r13
 7368 2ea8 EF92      		push r14
 7369 2eaa FF92      		push r15
 7370 2eac 0F93      		push r16
 7371 2eae 1F93      		push r17
 7372 2eb0 DF93      		push r29
 7373 2eb2 CF93      		push r28
 7374 2eb4 CDB7      		in r28,__SP_L__
 7375 2eb6 DEB7      		in r29,__SP_H__
 7376 2eb8 A597      		sbiw r28,37
 7377 2eba 0FB6      		in __tmp_reg__,__SREG__
 7378 2ebc F894      		cli
 7379 2ebe DEBF      		out __SP_H__,r29
 7380 2ec0 0FBE      		out __SREG__,__tmp_reg__
 7381 2ec2 CDBF      		out __SP_L__,r28
 7382               	/* prologue: function */
 7383               	/* frame size = 37 */
 7384 2ec4 FC01      		movw r30,r24
 7385 2ec6 6B01      		movw r12,r22
 7386               	.LM309:
 7387 2ec8 0097      		sbiw r24,0
 7388 2eca 01F4      		brne .+2
 7389 2ecc 00C0      		rjmp .L556
 7390               	.LVL500:
 7391 2ece 6115      		cp r22,__zero_reg__
 7392 2ed0 7105      		cpc r23,__zero_reg__
 7393 2ed2 01F4      		brne .+2
 7394 2ed4 00C0      		rjmp .L556
 7395               	.LVL501:
 7396               	.LM310:
 7397 2ed6 0190      		ld __tmp_reg__,Z+
 7398 2ed8 F081      		ld r31,Z
 7399 2eda E02D      		mov r30,__tmp_reg__
 7400 2edc 8481      		ldd r24,Z+4
 7401 2ede 9581      		ldd r25,Z+5
 7402               	.LVL502:
 7403 2ee0 9BA3      		std Y+35,r25
 7404 2ee2 8AA3      		std Y+34,r24
 7405               	.LVL503:
 7406               	.LM311:
 7407 2ee4 DB01      		movw r26,r22
 7408 2ee6 9996      		adiw r26,41
 7409 2ee8 2C90      		ld r2,X
 7410 2eea 9997      		sbiw r26,41
 7411               	.LVL504:
 7412 2eec 9A96      		adiw r26,42
 7413 2eee BC91      		ld r27,X
 7414 2ef0 BCA3      		std Y+36,r27
 7415 2ef2 FB01      		movw r30,r22
 7416 2ef4 73A4      		ldd r7,Z+43
 7417               	.LVL505:
 7418 2ef6 64A4      		ldd r6,Z+44
 7419               	.LVL506:
 7420 2ef8 55A4      		ldd r5,Z+45
 7421               	.LVL507:
 7422 2efa 46A4      		ldd r4,Z+46
 7423               	.LVL508:
 7424 2efc 37A4      		ldd r3,Z+47
 7425               	.LVL509:
 7426 2efe F0A9      		ldd r31,Z+48
 7427 2f00 FDA3      		std Y+37,r31
 7428               	.LM312:
 7429 2f02 062F      		mov r16,r22
 7430               	.LVL510:
 7431 2f04 FD2C      		mov r15,r13
 7432               	.LVL511:
 7433               	.LM313:
 7434 2f06 FB01      		movw r30,r22
 7435 2f08 0190      		ld __tmp_reg__,Z+
 7436 2f0a 0020      		tst __tmp_reg__
 7437 2f0c 01F4      		brne .-6
 7438 2f0e 3197      		sbiw r30,1
 7439 2f10 1E2F      		mov r17,r30
 7440               	.LVL512:
 7441 2f12 161B      		sub r17,r22
 7442               	.LM314:
 7443 2f14 812F      		mov r24,r17
 7444 2f16 90E0      		ldi r25,lo8(0)
 7445               	.LVL513:
 7446 2f18 0C96      		adiw r24,12
 7447 2f1a 6DE0      		ldi r22,lo8(13)
 7448 2f1c 70E0      		ldi r23,hi8(13)
 7449               	.LVL514:
 7450 2f1e 0E94 0000 		call __divmodhi4
 7451 2f22 69A3      		std Y+33,r22
 7452               	.LVL515:
 7453               	.LM315:
 7454 2f24 CE01      		movw r24,r28
 7455 2f26 0196      		adiw r24,1
 7456 2f28 60E2      		ldi r22,lo8(32)
 7457 2f2a 70E0      		ldi r23,hi8(32)
 7458 2f2c 4BE0      		ldi r20,lo8(11)
 7459 2f2e 50E0      		ldi r21,hi8(11)
 7460 2f30 0E94 0000 		call memset
 7461               	.LVL516:
 7462               	.LM316:
 7463 2f34 C601      		movw r24,r12
 7464               	.LVL517:
 7465 2f36 6EE2      		ldi r22,lo8(46)
 7466 2f38 70E0      		ldi r23,hi8(46)
 7467 2f3a 0E94 0000 		call strrchr
 7468 2f3e FC01      		movw r30,r24
 7469               	.LM317:
 7470 2f40 0097      		sbiw r24,0
 7471               	.LVL518:
 7472 2f42 01F0      		breq .L557
 7473 2f44 9C01      		movw r18,r24
 7474 2f46 2F5F      		subi r18,lo8(-(1))
 7475 2f48 3F4F      		sbci r19,hi8(-(1))
 7476               	.LVL519:
 7477 2f4a 8181      		ldd r24,Z+1
 7478 2f4c 8823      		tst r24
 7479 2f4e 01F0      		breq .L557
 7480               	.LVL520:
 7481               	.LBB79:
 7482               	.LM318:
 7483 2f50 D901      		movw r26,r18
 7484 2f52 0D90      		ld __tmp_reg__,X+
 7485 2f54 0020      		tst __tmp_reg__
 7486 2f56 01F4      		brne .-6
 7487 2f58 1197      		sbiw r26,1
 7488 2f5a A21B      		sub r26,r18
 7489 2f5c B30B      		sbc r27,r19
 7490               	.LM319:
 7491 2f5e 8A2F      		mov r24,r26
 7492 2f60 8095      		com r24
 7493 2f62 180F      		add r17,r24
 7494               	.LM320:
 7495 2f64 BE01      		movw r22,r28
 7496 2f66 675F      		subi r22,lo8(-(9))
 7497 2f68 7F4F      		sbci r23,hi8(-(9))
 7498 2f6a 4A2F      		mov r20,r26
 7499               	.LVL521:
 7500 2f6c A430      		cpi r26,lo8(4)
 7501 2f6e 00F0      		brlo .L558
 7502               	.LVL522:
 7503 2f70 43E0      		ldi r20,lo8(3)
 7504               	.LVL523:
 7505               	.L558:
 7506 2f72 CB01      		movw r24,r22
 7507 2f74 B901      		movw r22,r18
 7508               	.LVL524:
 7509 2f76 50E0      		ldi r21,lo8(0)
 7510 2f78 0E94 0000 		call memcpy
 7511               	.LVL525:
 7512               	.L557:
 7513 2f7c CE01      		movw r24,r28
 7514               	.LVL526:
 7515 2f7e 0196      		adiw r24,1
 7516               	.LBE79:
 7517               	.LM321:
 7518 2f80 1930      		cpi r17,lo8(9)
 7519 2f82 00F4      		brsh .L560
 7520               	.LM322:
 7521 2f84 602F      		mov r22,r16
 7522 2f86 7F2D      		mov r23,r15
 7523 2f88 412F      		mov r20,r17
 7524 2f8a 50E0      		ldi r21,lo8(0)
 7525 2f8c 0E94 0000 		call memcpy
 7526               	.LVL527:
 7527               	.LM323:
 7528 2f90 D601      		movw r26,r12
 7529               	.LVL528:
 7530 2f92 8C91      		ld r24,X
 7531 2f94 8E32      		cpi r24,lo8(46)
 7532 2f96 01F4      		brne .L562
 7533 2f98 1196      		adiw r26,1
 7534 2f9a 8C91      		ld r24,X
 7535 2f9c 1197      		sbiw r26,1
 7536 2f9e 8E32      		cpi r24,lo8(46)
 7537 2fa0 01F4      		brne .L563
 7538 2fa2 1296      		adiw r26,2
 7539 2fa4 8C91      		ld r24,X
 7540               	.L563:
 7541 2fa6 8823      		tst r24
 7542 2fa8 01F0      		breq .L564
 7543 2faa 00C0      		rjmp .L562
 7544               	.LVL529:
 7545               	.L560:
 7546               	.LBB80:
 7547               	.LM324:
 7548 2fac DC01      		movw r26,r24
 7549 2fae 802F      		mov r24,r16
 7550 2fb0 9F2D      		mov r25,r15
 7551 2fb2 9C01      		movw r18,r24
 7552 2fb4 F901      		movw r30,r18
 7553               	.LVL530:
 7554 2fb6 88E0      		ldi r24,lo8(8)
 7555               	.LVL531:
 7556               	.L565:
 7557 2fb8 0190      		ld r0,Z+
 7558 2fba 0D92      		st X+,r0
 7559 2fbc 8150      		subi r24,lo8(-(-1))
 7560 2fbe 01F4      		brne .L565
 7561               	.LM325:
 7562 2fc0 F601      		movw r30,r12
 7563               	.LVL532:
 7564 2fc2 81A1      		ldd r24,Z+33
 7565               	.LVL533:
 7566 2fc4 982F      		mov r25,r24
 7567               	.LVL534:
 7568 2fc6 9295      		swap r25
 7569 2fc8 9F70      		andi r25,lo8(15)
 7570               	.LM326:
 7571 2fca 803A      		cpi r24,lo8(-96)
 7572 2fcc 00F4      		brsh .L566
 7573 2fce 905D      		subi r25,lo8(-(48))
 7574 2fd0 00C0      		rjmp .L567
 7575               	.L566:
 7576 2fd2 9F59      		subi r25,lo8(-(97))
 7577               	.L567:
 7578               	.LM327:
 7579 2fd4 8F70      		andi r24,lo8(15)
 7580               	.LVL535:
 7581               	.LM328:
 7582 2fd6 8A30      		cpi r24,lo8(10)
 7583 2fd8 00F4      		brsh .L568
 7584 2fda 805D      		subi r24,lo8(-(48))
 7585               	.LVL536:
 7586 2fdc 00C0      		rjmp .L569
 7587               	.LVL537:
 7588               	.L568:
 7589 2fde 8F59      		subi r24,lo8(-(97))
 7590               	.LVL538:
 7591               	.L569:
 7592               	.LM329:
 7593 2fe0 9F83      		std Y+7,r25
 7594               	.LM330:
 7595 2fe2 8887      		std Y+8,r24
 7596 2fe4 00C0      		rjmp .L562
 7597               	.LVL539:
 7598               	.L564:
 7599 2fe6 19A2      		std Y+33,__zero_reg__
 7600               	.LVL540:
 7601               	.L562:
 7602               	.LBE80:
 7603               	.LM331:
 7604 2fe8 8981      		ldd r24,Y+1
 7605 2fea 853E      		cpi r24,lo8(-27)
 7606 2fec 01F4      		brne .L570
 7607               	.LM332:
 7608 2fee 85E0      		ldi r24,lo8(5)
 7609 2ff0 8983      		std Y+1,r24
 7610               	.L570:
 7611               	.LM333:
 7612 2ff2 85E1      		ldi r24,lo8(21)
 7613 2ff4 FE01      		movw r30,r28
 7614 2ff6 3C96      		adiw r30,12
 7615 2ff8 DF01      		movw r26,r30
 7616 2ffa 1D92      		st X+,__zero_reg__
 7617 2ffc 8A95      	        dec r24
 7618 2ffe 01F4      		brne .-6
 7619               	.LM334:
 7620 3000 F601      		movw r30,r12
 7621 3002 80A1      		ldd r24,Z+32
 7622 3004 8C87      		std Y+12,r24
 7623               	.LM335:
 7624 3006 21A1      		ldd r18,Z+33
 7625 3008 32A1      		ldd r19,Z+34
 7626 300a 43A1      		ldd r20,Z+35
 7627 300c 54A1      		ldd r21,Z+36
 7628 300e CA01      		movw r24,r20
 7629 3010 AA27      		clr r26
 7630 3012 BB27      		clr r27
 7631 3014 9E8B      		std Y+22,r25
 7632 3016 8D8B      		std Y+21,r24
 7633               	.LM336:
 7634 3018 3C8F      		std Y+28,r19
 7635 301a 2B8F      		std Y+27,r18
 7636               	.LM337:
 7637 301c 85A1      		ldd r24,Z+37
 7638 301e 96A1      		ldd r25,Z+38
 7639 3020 A7A1      		ldd r26,Z+39
 7640 3022 B0A5      		ldd r27,Z+40
 7641 3024 8D8F      		std Y+29,r24
 7642 3026 9E8F      		std Y+30,r25
 7643 3028 AF8F      		std Y+31,r26
 7644 302a B8A3      		std Y+32,r27
 7645               	.LM338:
 7646 302c F9A1      		ldd r31,Y+33
 7647 302e 8F2F      		mov r24,r31
 7648               	.LVL541:
 7649 3030 90E0      		ldi r25,lo8(0)
 7650               	.LVL542:
 7651 3032 A5E0      		ldi r26,5
 7652 3034 880F      	1:	lsl r24
 7653 3036 991F      		rol r25
 7654 3038 AA95      		dec r26
 7655 303a 01F4      		brne 1b
 7656               	.LVL543:
 7657 303c 9C01      		movw r18,r24
 7658 303e 40E0      		ldi r20,lo8(0)
 7659 3040 50E0      		ldi r21,hi8(0)
 7660 3042 60E0      		ldi r22,lo8(0)
 7661 3044 70E0      		ldi r23,hi8(0)
 7662 3046 80E0      		ldi r24,hlo8(0)
 7663 3048 90E0      		ldi r25,hhi8(0)
 7664 304a B22E      		mov r11,r18
 7665 304c B20C      		add r11,r2
 7666 304e A1E0      		ldi r26,lo8(1)
 7667 3050 B216      		cp r11,r18
 7668 3052 00F0      		brlo .L571
 7669 3054 A0E0      		ldi r26,lo8(0)
 7670               	.L571:
 7671 3056 ECA1      		ldd r30,Y+36
 7672 3058 E30F      		add r30,r19
 7673 305a F1E0      		ldi r31,lo8(1)
 7674 305c E317      		cp r30,r19
 7675 305e 00F0      		brlo .L572
 7676 3060 F0E0      		ldi r31,lo8(0)
 7677               	.L572:
 7678 3062 EA2E      		mov r14,r26
 7679 3064 EE0E      		add r14,r30
 7680 3066 A1E0      		ldi r26,lo8(1)
 7681 3068 EE16      		cp r14,r30
 7682 306a 00F0      		brlo .L573
 7683 306c A0E0      		ldi r26,lo8(0)
 7684               	.L573:
 7685 306e FA2B      		or r31,r26
 7686 3070 E1E0      		ldi r30,lo8(1)
 7687 3072 7416      		cp r7,r20
 7688 3074 00F0      		brlo .L574
 7689 3076 E0E0      		ldi r30,lo8(0)
 7690               	.L574:
 7691 3078 FF2E      		mov r15,r31
 7692               	.LVL544:
 7693 307a F70C      		add r15,r7
 7694 307c F1E0      		ldi r31,lo8(1)
 7695 307e F714      		cp r15,r7
 7696 3080 00F0      		brlo .L575
 7697 3082 F0E0      		ldi r31,lo8(0)
 7698               	.L575:
 7699 3084 EF2B      		or r30,r31
 7700 3086 F1E0      		ldi r31,lo8(1)
 7701 3088 6516      		cp r6,r21
 7702 308a 00F0      		brlo .L576
 7703 308c F0E0      		ldi r31,lo8(0)
 7704               	.L576:
 7705 308e 0E2F      		mov r16,r30
 7706               	.LVL545:
 7707 3090 060D      		add r16,r6
 7708 3092 E1E0      		ldi r30,lo8(1)
 7709 3094 0615      		cp r16,r6
 7710 3096 00F0      		brlo .L577
 7711 3098 E0E0      		ldi r30,lo8(0)
 7712               	.L577:
 7713 309a FE2B      		or r31,r30
 7714 309c E1E0      		ldi r30,lo8(1)
 7715 309e 5616      		cp r5,r22
 7716 30a0 00F0      		brlo .L578
 7717 30a2 E0E0      		ldi r30,lo8(0)
 7718               	.L578:
 7719 30a4 1F2F      		mov r17,r31
 7720               	.LVL546:
 7721 30a6 150D      		add r17,r5
 7722 30a8 F1E0      		ldi r31,lo8(1)
 7723 30aa 1515      		cp r17,r5
 7724 30ac 00F0      		brlo .L579
 7725 30ae F0E0      		ldi r31,lo8(0)
 7726               	.L579:
 7727 30b0 EF2B      		or r30,r31
 7728 30b2 F1E0      		ldi r31,lo8(1)
 7729 30b4 4716      		cp r4,r23
 7730 30b6 00F0      		brlo .L580
 7731 30b8 F0E0      		ldi r31,lo8(0)
 7732               	.L580:
 7733 30ba BE2F      		mov r27,r30
 7734 30bc B40D      		add r27,r4
 7735 30be E1E0      		ldi r30,lo8(1)
 7736 30c0 B415      		cp r27,r4
 7737 30c2 00F0      		brlo .L581
 7738 30c4 E0E0      		ldi r30,lo8(0)
 7739               	.L581:
 7740 30c6 FE2B      		or r31,r30
 7741 30c8 A1E0      		ldi r26,lo8(1)
 7742 30ca 3816      		cp r3,r24
 7743               	.LVL547:
 7744 30cc 00F0      		brlo .L582
 7745 30ce A0E0      		ldi r26,lo8(0)
 7746               	.L582:
 7747 30d0 8F2F      		mov r24,r31
 7748 30d2 830D      		add r24,r3
 7749 30d4 E1E0      		ldi r30,lo8(1)
 7750 30d6 8315      		cp r24,r3
 7751 30d8 00F0      		brlo .L583
 7752 30da E0E0      		ldi r30,lo8(0)
 7753               	.L583:
 7754 30dc AE2B      		or r26,r30
 7755 30de 2B2D      		mov r18,r11
 7756 30e0 3E2D      		mov r19,r14
 7757 30e2 4F2D      		mov r20,r15
 7758 30e4 502F      		mov r21,r16
 7759 30e6 612F      		mov r22,r17
 7760 30e8 7B2F      		mov r23,r27
 7761 30ea 9DA1      		ldd r25,Y+37
 7762               	.LVL548:
 7763 30ec 9A0F      		add r25,r26
 7764 30ee 8E01      		movw r16,r28
 7765 30f0 0F5F      		subi r16,lo8(-(1))
 7766 30f2 1F4F      		sbci r17,hi8(-(1))
 7767 30f4 F0E2      		ldi r31,lo8(32)
 7768 30f6 EF2E      		mov r14,r31
 7769 30f8 F12C      		mov r15,__zero_reg__
 7770 30fa AAA1      		ldd r26,Y+34
 7771 30fc BBA1      		ldd r27,Y+35
 7772 30fe FD01      		movw r30,r26
 7773 3100 0995      		icall
 7774 3102 8823      		tst r24
 7775 3104 01F4      		brne .+2
 7776 3106 00C0      		rjmp .L556
 7777               	.LM339:
 7778 3108 B980      		ldd r11,Y+1
 7779               	.LVL549:
 7780 310a FE01      		movw r30,r28
 7781 310c 3296      		adiw r30,2
 7782               	.LBB81:
 7783               	.LM340:
 7784 310e 9E01      		movw r18,r28
 7785 3110 245F      		subi r18,lo8(-(12))
 7786 3112 3F4F      		sbci r19,hi8(-(12))
 7787               	.L584:
 7788               	.LM341:
 7789 3114 8B2D      		mov r24,r11
 7790 3116 8695      		lsr r24
 7791 3118 B794      		ror r11
 7792 311a BB24      		clr r11
 7793 311c B794      		ror r11
 7794 311e B82A      		or r11,r24
 7795 3120 8191      		ld r24,Z+
 7796 3122 B80E      		add r11,r24
 7797               	.LM342:
 7798 3124 E217      		cp r30,r18
 7799 3126 F307      		cpc r31,r19
 7800 3128 01F4      		brne .L584
 7801 312a A9A0      		ldd r10,Y+33
 7802               	.LVL550:
 7803               	.LBE81:
 7804               	.LBB82:
 7805               	.LBB83:
 7806               	.LM343:
 7807 312c 4E01      		movw r8,r28
 7808 312e 0894      		sec
 7809 3130 811C      		adc r8,__zero_reg__
 7810 3132 911C      		adc r9,__zero_reg__
 7811 3134 00C0      		rjmp .L585
 7812               	.L605:
 7813 3136 C401      		movw r24,r8
 7814 3138 6FEF      		ldi r22,lo8(255)
 7815 313a 70E0      		ldi r23,hi8(255)
 7816 313c 40E2      		ldi r20,lo8(32)
 7817 313e 50E0      		ldi r21,hi8(32)
 7818 3140 0E94 0000 		call memset
 7819               	.LM344:
 7820 3144 EDE0      		ldi r30,lo8(13)
 7821 3146 AE9E      		mul r10,r30
 7822 3148 D001      		movw r26,r0
 7823 314a 1124      		clr r1
 7824               	.LVL551:
 7825 314c 1D97      		sbiw r26,13
 7826 314e AC0D      		add r26,r12
 7827 3150 BD1D      		adc r27,r13
 7828 3152 91E0      		ldi r25,lo8(1)
 7829               	.LVL552:
 7830               	.L590:
 7831               	.LM345:
 7832 3154 F401      		movw r30,r8
 7833 3156 E90F      		add r30,r25
 7834 3158 F11D      		adc r31,__zero_reg__
 7835 315a 8C91      		ld r24,X
 7836 315c 8083      		st Z,r24
 7837 315e 892F      		mov r24,r25
 7838 3160 8F5F      		subi r24,lo8(-(1))
 7839               	.LVL553:
 7840               	.LM346:
 7841 3162 F401      		movw r30,r8
 7842 3164 E80F      		add r30,r24
 7843 3166 F11D      		adc r31,__zero_reg__
 7844 3168 1082      		st Z,__zero_reg__
 7845 316a 9E5F      		subi r25,lo8(-(2))
 7846               	.LVL554:
 7847               	.LM347:
 7848 316c 9B30      		cpi r25,lo8(11)
 7849 316e 01F0      		breq .L587
 7850 3170 9A31      		cpi r25,lo8(26)
 7851 3172 01F4      		brne .L586
 7852 3174 00C0      		rjmp .L610
 7853               	.L587:
 7854 3176 9EE0      		ldi r25,lo8(14)
 7855 3178 00C0      		rjmp .L586
 7856               	.L610:
 7857 317a 9CE1      		ldi r25,lo8(28)
 7858               	.L586:
 7859               	.LM348:
 7860 317c 8C91      		ld r24,X
 7861 317e 8823      		tst r24
 7862 3180 01F0      		breq .L589
 7863               	.LM349:
 7864 3182 9F31      		cpi r25,lo8(31)
 7865 3184 00F4      		brsh .L589
 7866               	.LM350:
 7867 3186 1196      		adiw r26,1
 7868 3188 00C0      		rjmp .L590
 7869               	.L589:
 7870               	.LM351:
 7871 318a A982      		std Y+1,r10
 7872               	.LM352:
 7873 318c F9A1      		ldd r31,Y+33
 7874 318e AF16      		cp r10,r31
 7875 3190 01F4      		brne .L591
 7876               	.LM353:
 7877 3192 8A2D      		mov r24,r10
 7878 3194 8064      		ori r24,lo8(64)
 7879 3196 8983      		std Y+1,r24
 7880               	.L591:
 7881               	.LM354:
 7882 3198 2FE0      		ldi r18,lo8(15)
 7883 319a 2C87      		std Y+12,r18
 7884               	.LM355:
 7885 319c BE86      		std Y+14,r11
 7886               	.LM356:
 7887 319e 1D86      		std Y+13,__zero_reg__
 7888               	.LM357:
 7889 31a0 1B8E      		std Y+27,__zero_reg__
 7890               	.LM358:
 7891 31a2 1C8E      		std Y+28,__zero_reg__
 7892               	.LM359:
 7893 31a4 222D      		mov r18,r2
 7894 31a6 3CA1      		ldd r19,Y+36
 7895 31a8 472D      		mov r20,r7
 7896 31aa 562D      		mov r21,r6
 7897 31ac 652D      		mov r22,r5
 7898 31ae 742D      		mov r23,r4
 7899 31b0 832D      		mov r24,r3
 7900 31b2 9DA1      		ldd r25,Y+37
 7901               	.LVL555:
 7902 31b4 8401      		movw r16,r8
 7903 31b6 E0E2      		ldi r30,lo8(32)
 7904 31b8 EE2E      		mov r14,r30
 7905 31ba F12C      		mov r15,__zero_reg__
 7906 31bc AAA1      		ldd r26,Y+34
 7907 31be BBA1      		ldd r27,Y+35
 7908               	.LVL556:
 7909 31c0 FD01      		movw r30,r26
 7910 31c2 0995      		icall
 7911               	.LM360:
 7912 31c4 722D      		mov r23,r2
 7913 31c6 705E      		subi r23,lo8(-(32))
 7914 31c8 81E0      		ldi r24,lo8(1)
 7915 31ca 7215      		cp r23,r2
 7916 31cc 00F0      		brlo .L592
 7917 31ce 80E0      		ldi r24,lo8(0)
 7918               	.L592:
 7919 31d0 6CA1      		ldd r22,Y+36
 7920 31d2 680F      		add r22,r24
 7921 31d4 81E0      		ldi r24,lo8(1)
 7922 31d6 BCA1      		ldd r27,Y+36
 7923 31d8 6B17      		cp r22,r27
 7924 31da 00F0      		brlo .L594
 7925 31dc 80E0      		ldi r24,lo8(0)
 7926               	.L594:
 7927 31de 582F      		mov r21,r24
 7928 31e0 570D      		add r21,r7
 7929 31e2 81E0      		ldi r24,lo8(1)
 7930 31e4 5715      		cp r21,r7
 7931 31e6 00F0      		brlo .L596
 7932 31e8 80E0      		ldi r24,lo8(0)
 7933               	.L596:
 7934 31ea 482F      		mov r20,r24
 7935 31ec 460D      		add r20,r6
 7936 31ee 81E0      		ldi r24,lo8(1)
 7937 31f0 4615      		cp r20,r6
 7938 31f2 00F0      		brlo .L598
 7939 31f4 80E0      		ldi r24,lo8(0)
 7940               	.L598:
 7941 31f6 382F      		mov r19,r24
 7942 31f8 350D      		add r19,r5
 7943 31fa 81E0      		ldi r24,lo8(1)
 7944 31fc 3515      		cp r19,r5
 7945 31fe 00F0      		brlo .L600
 7946 3200 80E0      		ldi r24,lo8(0)
 7947               	.L600:
 7948 3202 282F      		mov r18,r24
 7949 3204 240D      		add r18,r4
 7950 3206 81E0      		ldi r24,lo8(1)
 7951 3208 2415      		cp r18,r4
 7952 320a 00F0      		brlo .L602
 7953 320c 80E0      		ldi r24,lo8(0)
 7954               	.L602:
 7955 320e 830D      		add r24,r3
 7956 3210 91E0      		ldi r25,lo8(1)
 7957 3212 8315      		cp r24,r3
 7958 3214 00F0      		brlo .L604
 7959 3216 90E0      		ldi r25,lo8(0)
 7960               	.L604:
 7961 3218 272E      		mov r2,r23
 7962 321a 6CA3      		std Y+36,r22
 7963 321c 3A01      		movw r6,r20
 7964               	.LVL557:
 7965 321e 2901      		movw r4,r18
 7966               	.LVL558:
 7967 3220 382E      		mov r3,r24
 7968 3222 EDA1      		ldd r30,Y+37
 7969 3224 E90F      		add r30,r25
 7970 3226 EDA3      		std Y+37,r30
 7971               	.LBE83:
 7972               	.LM361:
 7973 3228 AA94      		dec r10
 7974               	.LVL559:
 7975               	.L585:
 7976 322a AA20      		tst r10
 7977 322c 01F0      		breq .+2
 7978 322e 00C0      		rjmp .L605
 7979 3230 81E0      		ldi r24,lo8(1)
 7980 3232 00C0      		rjmp .L606
 7981               	.LVL560:
 7982               	.L556:
 7983 3234 80E0      		ldi r24,lo8(0)
 7984               	.LVL561:
 7985               	.L606:
 7986               	/* epilogue start */
 7987               	.LBE82:
 7988               	.LM362:
 7989 3236 A596      		adiw r28,37
 7990 3238 0FB6      		in __tmp_reg__,__SREG__
 7991 323a F894      		cli
 7992 323c DEBF      		out __SP_H__,r29
 7993 323e 0FBE      		out __SREG__,__tmp_reg__
 7994 3240 CDBF      		out __SP_L__,r28
 7995 3242 CF91      		pop r28
 7996 3244 DF91      		pop r29
 7997 3246 1F91      		pop r17
 7998 3248 0F91      		pop r16
 7999 324a FF90      		pop r15
 8000 324c EF90      		pop r14
 8001 324e DF90      		pop r13
 8002               	.LVL562:
 8003 3250 CF90      		pop r12
 8004               	.LVL563:
 8005 3252 BF90      		pop r11
 8006               	.LVL564:
 8007 3254 AF90      		pop r10
 8008               	.LVL565:
 8009 3256 9F90      		pop r9
 8010 3258 8F90      		pop r8
 8011 325a 7F90      		pop r7
 8012               	.LVL566:
 8013 325c 6F90      		pop r6
 8014               	.LVL567:
 8015 325e 5F90      		pop r5
 8016               	.LVL568:
 8017 3260 4F90      		pop r4
 8018               	.LVL569:
 8019 3262 3F90      		pop r3
 8020               	.LVL570:
 8021 3264 2F90      		pop r2
 8022               	.LVL571:
 8023 3266 0895      		ret
 8024               	.LFE26:
 8026               	.global	fat_create_dir
 8028               	fat_create_dir:
 8029               	.LFB29:
 8030               	.LM363:
 8031               	.LVL572:
 8032 3268 2F92      		push r2
 8033 326a 3F92      		push r3
 8034 326c 4F92      		push r4
 8035 326e 5F92      		push r5
 8036 3270 6F92      		push r6
 8037 3272 7F92      		push r7
 8038 3274 8F92      		push r8
 8039 3276 9F92      		push r9
 8040 3278 AF92      		push r10
 8041 327a BF92      		push r11
 8042 327c CF92      		push r12
 8043 327e DF92      		push r13
 8044 3280 EF92      		push r14
 8045 3282 FF92      		push r15
 8046 3284 0F93      		push r16
 8047 3286 1F93      		push r17
 8048 3288 DF93      		push r29
 8049 328a CF93      		push r28
 8050 328c CDB7      		in r28,__SP_L__
 8051 328e DEB7      		in r29,__SP_H__
 8052 3290 2E97      		sbiw r28,14
 8053 3292 0FB6      		in __tmp_reg__,__SREG__
 8054 3294 F894      		cli
 8055 3296 DEBF      		out __SP_H__,r29
 8056 3298 0FBE      		out __SREG__,__tmp_reg__
 8057 329a CDBF      		out __SP_L__,r28
 8058               	/* prologue: function */
 8059               	/* frame size = 14 */
 8060 329c 9887      		std Y+8,r25
 8061 329e 8F83      		std Y+7,r24
 8062 32a0 7A87      		std Y+10,r23
 8063 32a2 6987      		std Y+9,r22
 8064 32a4 5E87      		std Y+14,r21
 8065 32a6 4D87      		std Y+13,r20
 8066               	.LM364:
 8067 32a8 892B      		or r24,r25
 8068 32aa 01F4      		brne .+2
 8069 32ac 00C0      		rjmp .L612
 8070               	.LVL573:
 8071 32ae 6115      		cp r22,__zero_reg__
 8072 32b0 7105      		cpc r23,__zero_reg__
 8073 32b2 01F4      		brne .+2
 8074 32b4 00C0      		rjmp .L612
 8075               	.LVL574:
 8076 32b6 DB01      		movw r26,r22
 8077 32b8 8C91      		ld r24,X
 8078               	.LVL575:
 8079 32ba 8823      		tst r24
 8080 32bc 01F4      		brne .+2
 8081 32be 00C0      		rjmp .L612
 8082 32c0 452B      		or r20,r21
 8083 32c2 01F4      		brne .L649
 8084               	.LVL576:
 8085 32c4 00C0      		rjmp .L612
 8086               	.LVL577:
 8087               	.L616:
 8088               	.LM365:
 8089 32c6 8985      		ldd r24,Y+9
 8090 32c8 9A85      		ldd r25,Y+10
 8091 32ca 6B85      		ldd r22,Y+11
 8092 32cc 7C85      		ldd r23,Y+12
 8093 32ce 0E94 0000 		call strcmp
 8094 32d2 0097      		sbiw r24,0
 8095 32d4 01F4      		brne .L614
 8096               	.LBB84:
 8097               	.LBB85:
 8098               	.LM366:
 8099 32d6 EF81      		ldd r30,Y+7
 8100 32d8 F885      		ldd r31,Y+8
 8101 32da 83A1      		ldd r24,Z+35
 8102 32dc 94A1      		ldd r25,Z+36
 8103 32de A5A1      		ldd r26,Z+37
 8104 32e0 B6A1      		ldd r27,Z+38
 8105 32e2 83AB      		std Z+51,r24
 8106 32e4 94AB      		std Z+52,r25
 8107 32e6 A5AB      		std Z+53,r26
 8108 32e8 B6AB      		std Z+54,r27
 8109               	.LM367:
 8110 32ea 10AE      		std Z+56,__zero_reg__
 8111 32ec 17AA      		std Z+55,__zero_reg__
 8112 32ee 00C0      		rjmp .L612
 8113               	.LVL578:
 8114               	.L649:
 8115               	.LBE85:
 8116               	.LBE84:
 8117               	.LM368:
 8118 32f0 FD85      		ldd r31,Y+13
 8119 32f2 FB87      		std Y+11,r31
 8120 32f4 8E85      		ldd r24,Y+14
 8121               	.LVL579:
 8122 32f6 8C87      		std Y+12,r24
 8123               	.LVL580:
 8124               	.L614:
 8125               	.LM369:
 8126 32f8 8F81      		ldd r24,Y+7
 8127 32fa 9885      		ldd r25,Y+8
 8128 32fc 6D85      		ldd r22,Y+13
 8129 32fe 7E85      		ldd r23,Y+14
 8130 3300 0E94 0000 		call fat_read_dir
 8131 3304 8823      		tst r24
 8132 3306 01F4      		brne .L616
 8133               	.LVL581:
 8134               	.LM370:
 8135 3308 AF81      		ldd r26,Y+7
 8136 330a B885      		ldd r27,Y+8
 8137 330c 0D90      		ld __tmp_reg__,X+
 8138 330e BC91      		ld r27,X
 8139 3310 A02D      		mov r26,__tmp_reg__
 8140 3312 BE83      		std Y+6,r27
 8141 3314 AD83      		std Y+5,r26
 8142               	.LVL582:
 8143               	.LM371:
 8144 3316 CD01      		movw r24,r26
 8145 3318 40E0      		ldi r20,lo8(0)
 8146 331a 50E0      		ldi r21,hi8(0)
 8147 331c 60E0      		ldi r22,hlo8(0)
 8148 331e 70E0      		ldi r23,hhi8(0)
 8149 3320 01E0      		ldi r16,lo8(1)
 8150 3322 10E0      		ldi r17,hi8(1)
 8151 3324 20E0      		ldi r18,hlo8(1)
 8152 3326 30E0      		ldi r19,hhi8(1)
 8153 3328 0E94 0000 		call fat_append_clusters
 8154 332c 6983      		std Y+1,r22
 8155 332e 7A83      		std Y+2,r23
 8156 3330 8B83      		std Y+3,r24
 8157 3332 9C83      		std Y+4,r25
 8158               	.LVL583:
 8159               	.LM372:
 8160 3334 6115      		cp r22,__zero_reg__
 8161 3336 7105      		cpc r23,__zero_reg__
 8162 3338 8105      		cpc r24,__zero_reg__
 8163 333a 9105      		cpc r25,__zero_reg__
 8164 333c 01F4      		brne .+2
 8165 333e 00C0      		rjmp .L612
 8166               	.LM373:
 8167 3340 8D81      		ldd r24,Y+5
 8168 3342 9E81      		ldd r25,Y+6
 8169 3344 4981      		ldd r20,Y+1
 8170 3346 5A81      		ldd r21,Y+2
 8171 3348 6B81      		ldd r22,Y+3
 8172 334a 7C81      		ldd r23,Y+4
 8173 334c 0E94 0000 		call fat_clear_cluster
 8174               	.LM374:
 8175 3350 81E3      		ldi r24,lo8(49)
 8176 3352 ED85      		ldd r30,Y+13
 8177 3354 FE85      		ldd r31,Y+14
 8178 3356 1192      		st Z+,__zero_reg__
 8179 3358 8A95      	        dec r24
 8180 335a 01F4      		brne .-6
 8181               	.LM375:
 8182 335c 80E1      		ldi r24,lo8(16)
 8183 335e AD85      		ldd r26,Y+13
 8184 3360 BE85      		ldd r27,Y+14
 8185 3362 9096      		adiw r26,32
 8186 3364 8C93      		st X,r24
 8187               	.LM376:
 8188 3366 8981      		ldd r24,Y+1
 8189 3368 9A81      		ldd r25,Y+2
 8190 336a AB81      		ldd r26,Y+3
 8191 336c BC81      		ldd r27,Y+4
 8192 336e 0297      		sbiw r24,2
 8193 3370 A109      		sbc r26,__zero_reg__
 8194 3372 B109      		sbc r27,__zero_reg__
 8195 3374 5C01      		movw r10,r24
 8196 3376 6D01      		movw r12,r26
 8197 3378 0296      		adiw r24,2
 8198 337a A11D      		adc r26,__zero_reg__
 8199 337c B11D      		adc r27,__zero_reg__
 8200 337e 8983      		std Y+1,r24
 8201 3380 9A83      		std Y+2,r25
 8202 3382 AB83      		std Y+3,r26
 8203 3384 BC83      		std Y+4,r27
 8204               	.LVL584:
 8205 3386 AD81      		ldd r26,Y+5
 8206 3388 BE81      		ldd r27,Y+6
 8207 338a 5896      		adiw r26,24
 8208 338c 2D90      		ld r2,X+
 8209 338e 3C90      		ld r3,X
 8210 3390 5997      		sbiw r26,24+1
 8211 3392 9501      		movw r18,r10
 8212 3394 A601      		movw r20,r12
 8213 3396 60E0      		ldi r22,lo8(0)
 8214 3398 70E0      		ldi r23,lo8(0)
 8215 339a 80E0      		ldi r24,lo8(0)
 8216 339c 90E0      		ldi r25,lo8(0)
 8217 339e 5101      		movw r10,r2
 8218 33a0 CC24      		clr r12
 8219 33a2 DD24      		clr r13
 8220 33a4 EE24      		clr r14
 8221 33a6 FF24      		clr r15
 8222 33a8 00E0      		ldi r16,lo8(0)
 8223 33aa 10E0      		ldi r17,lo8(0)
 8224 33ac 0E94 0000 		call __muldi3
 8225 33b0 ED81      		ldd r30,Y+5
 8226 33b2 FE81      		ldd r31,Y+6
 8227 33b4 A28D      		ldd r26,Z+26
 8228 33b6 E38C      		ldd r14,Z+27
 8229 33b8 148D      		ldd r17,Z+28
 8230 33ba 058D      		ldd r16,Z+29
 8231 33bc F68C      		ldd r15,Z+30
 8232 33be D78C      		ldd r13,Z+31
 8233 33c0 C0A0      		ldd r12,Z+32
 8234 33c2 B1A1      		ldd r27,Z+33
 8235 33c4 A20F      		add r26,r18
 8236 33c6 F1E0      		ldi r31,lo8(1)
 8237 33c8 A217      		cp r26,r18
 8238 33ca 00F0      		brlo .L617
 8239 33cc F0E0      		ldi r31,lo8(0)
 8240               	.L617:
 8241 33ce 232F      		mov r18,r19
 8242 33d0 2E0D      		add r18,r14
 8243 33d2 E1E0      		ldi r30,lo8(1)
 8244 33d4 2317      		cp r18,r19
 8245 33d6 00F0      		brlo .L618
 8246 33d8 E0E0      		ldi r30,lo8(0)
 8247               	.L618:
 8248 33da EF2E      		mov r14,r31
 8249 33dc E20E      		add r14,r18
 8250 33de 31E0      		ldi r19,lo8(1)
 8251 33e0 E216      		cp r14,r18
 8252 33e2 00F0      		brlo .L619
 8253 33e4 30E0      		ldi r19,lo8(0)
 8254               	.L619:
 8255 33e6 E32B      		or r30,r19
 8256 33e8 242F      		mov r18,r20
 8257 33ea 210F      		add r18,r17
 8258 33ec F1E0      		ldi r31,lo8(1)
 8259 33ee 2417      		cp r18,r20
 8260 33f0 00F0      		brlo .L620
 8261 33f2 F0E0      		ldi r31,lo8(0)
 8262               	.L620:
 8263 33f4 1E2F      		mov r17,r30
 8264 33f6 120F      		add r17,r18
 8265 33f8 31E0      		ldi r19,lo8(1)
 8266 33fa 1217      		cp r17,r18
 8267 33fc 00F0      		brlo .L621
 8268 33fe 30E0      		ldi r19,lo8(0)
 8269               	.L621:
 8270 3400 F32B      		or r31,r19
 8271 3402 252F      		mov r18,r21
 8272 3404 200F      		add r18,r16
 8273 3406 41E0      		ldi r20,lo8(1)
 8274 3408 2517      		cp r18,r21
 8275 340a 00F0      		brlo .L622
 8276 340c 40E0      		ldi r20,lo8(0)
 8277               	.L622:
 8278 340e 0F2F      		mov r16,r31
 8279 3410 020F      		add r16,r18
 8280 3412 31E0      		ldi r19,lo8(1)
 8281 3414 0217      		cp r16,r18
 8282 3416 00F0      		brlo .L623
 8283 3418 30E0      		ldi r19,lo8(0)
 8284               	.L623:
 8285 341a 432B      		or r20,r19
 8286 341c 262F      		mov r18,r22
 8287 341e 2F0D      		add r18,r15
 8288 3420 51E0      		ldi r21,lo8(1)
 8289 3422 2617      		cp r18,r22
 8290 3424 00F0      		brlo .L624
 8291 3426 50E0      		ldi r21,lo8(0)
 8292               	.L624:
 8293 3428 642F      		mov r22,r20
 8294 342a 620F      		add r22,r18
 8295 342c 31E0      		ldi r19,lo8(1)
 8296 342e 6217      		cp r22,r18
 8297 3430 00F0      		brlo .L625
 8298 3432 30E0      		ldi r19,lo8(0)
 8299               	.L625:
 8300 3434 532B      		or r21,r19
 8301 3436 272F      		mov r18,r23
 8302 3438 2D0D      		add r18,r13
 8303 343a 41E0      		ldi r20,lo8(1)
 8304 343c 2717      		cp r18,r23
 8305 343e 00F0      		brlo .L626
 8306 3440 40E0      		ldi r20,lo8(0)
 8307               	.L626:
 8308 3442 520F      		add r21,r18
 8309 3444 31E0      		ldi r19,lo8(1)
 8310 3446 5217      		cp r21,r18
 8311 3448 00F0      		brlo .L627
 8312 344a 30E0      		ldi r19,lo8(0)
 8313               	.L627:
 8314 344c 432B      		or r20,r19
 8315 344e 282F      		mov r18,r24
 8316 3450 2C0D      		add r18,r12
 8317 3452 31E0      		ldi r19,lo8(1)
 8318 3454 2817      		cp r18,r24
 8319 3456 00F0      		brlo .L628
 8320 3458 30E0      		ldi r19,lo8(0)
 8321               	.L628:
 8322 345a 420F      		add r20,r18
 8323 345c 81E0      		ldi r24,lo8(1)
 8324 345e 4217      		cp r20,r18
 8325 3460 00F0      		brlo .L629
 8326 3462 80E0      		ldi r24,lo8(0)
 8327               	.L629:
 8328 3464 382B      		or r19,r24
 8329 3466 B90F      		add r27,r25
 8330 3468 3B0F      		add r19,r27
 8331 346a ED85      		ldd r30,Y+13
 8332 346c FE85      		ldd r31,Y+14
 8333 346e A1A7      		std Z+41,r26
 8334 3470 E2A6      		std Z+42,r14
 8335 3472 13A7      		std Z+43,r17
 8336 3474 04A7      		std Z+44,r16
 8337 3476 65A7      		std Z+45,r22
 8338 3478 56A7      		std Z+46,r21
 8339 347a 47A7      		std Z+47,r20
 8340 347c 30AB      		std Z+48,r19
 8341               	.LM377:
 8342 347e 8EE2      		ldi r24,lo8(46)
 8343 3480 8083      		st Z,r24
 8344               	.LM378:
 8345 3482 8981      		ldd r24,Y+1
 8346 3484 9A81      		ldd r25,Y+2
 8347 3486 AB81      		ldd r26,Y+3
 8348 3488 BC81      		ldd r27,Y+4
 8349 348a ED85      		ldd r30,Y+13
 8350 348c FE85      		ldd r31,Y+14
 8351 348e 81A3      		std Z+33,r24
 8352 3490 92A3      		std Z+34,r25
 8353 3492 A3A3      		std Z+35,r26
 8354 3494 B4A3      		std Z+36,r27
 8355               	.LM379:
 8356 3496 8D81      		ldd r24,Y+5
 8357 3498 9E81      		ldd r25,Y+6
 8358 349a BF01      		movw r22,r30
 8359 349c 0E94 0000 		call fat_write_dir_entry
 8360 34a0 8823      		tst r24
 8361 34a2 01F4      		brne .+2
 8362 34a4 00C0      		rjmp .L646
 8363               	.L630:
 8364               	.LM380:
 8365 34a6 AD85      		ldd r26,Y+13
 8366 34a8 BE85      		ldd r27,Y+14
 8367 34aa 9996      		adiw r26,41
 8368 34ac 8C91      		ld r24,X
 8369 34ae 9997      		sbiw r26,41
 8370 34b0 9A96      		adiw r26,42
 8371 34b2 2C91      		ld r18,X
 8372 34b4 9A97      		sbiw r26,42
 8373 34b6 9B96      		adiw r26,43
 8374 34b8 3C91      		ld r19,X
 8375 34ba 9B97      		sbiw r26,43
 8376 34bc 9C96      		adiw r26,44
 8377 34be 4C91      		ld r20,X
 8378 34c0 9C97      		sbiw r26,44
 8379 34c2 9D96      		adiw r26,45
 8380 34c4 6C91      		ld r22,X
 8381 34c6 9D97      		sbiw r26,45
 8382 34c8 9E96      		adiw r26,46
 8383 34ca FC90      		ld r15,X
 8384 34cc 9E97      		sbiw r26,46
 8385 34ce 9F96      		adiw r26,47
 8386 34d0 AC91      		ld r26,X
 8387 34d2 ED85      		ldd r30,Y+13
 8388 34d4 FE85      		ldd r31,Y+14
 8389 34d6 10A9      		ldd r17,Z+48
 8390 34d8 B82F      		mov r27,r24
 8391 34da B05E      		subi r27,lo8(-(32))
 8392 34dc 91E0      		ldi r25,lo8(1)
 8393 34de B817      		cp r27,r24
 8394 34e0 00F0      		brlo .L631
 8395 34e2 90E0      		ldi r25,lo8(0)
 8396               	.L631:
 8397 34e4 092F      		mov r16,r25
 8398 34e6 020F      		add r16,r18
 8399 34e8 81E0      		ldi r24,lo8(1)
 8400 34ea 0217      		cp r16,r18
 8401 34ec 00F0      		brlo .L633
 8402 34ee 80E0      		ldi r24,lo8(0)
 8403               	.L633:
 8404 34f0 782F      		mov r23,r24
 8405 34f2 730F      		add r23,r19
 8406 34f4 81E0      		ldi r24,lo8(1)
 8407 34f6 7317      		cp r23,r19
 8408 34f8 00F0      		brlo .L635
 8409 34fa 80E0      		ldi r24,lo8(0)
 8410               	.L635:
 8411 34fc 582F      		mov r21,r24
 8412 34fe 540F      		add r21,r20
 8413 3500 81E0      		ldi r24,lo8(1)
 8414 3502 5417      		cp r21,r20
 8415 3504 00F0      		brlo .L637
 8416 3506 80E0      		ldi r24,lo8(0)
 8417               	.L637:
 8418 3508 382F      		mov r19,r24
 8419 350a 360F      		add r19,r22
 8420 350c 81E0      		ldi r24,lo8(1)
 8421 350e 3617      		cp r19,r22
 8422 3510 00F0      		brlo .L639
 8423 3512 80E0      		ldi r24,lo8(0)
 8424               	.L639:
 8425 3514 282F      		mov r18,r24
 8426 3516 2F0D      		add r18,r15
 8427 3518 81E0      		ldi r24,lo8(1)
 8428 351a 2F15      		cp r18,r15
 8429 351c 00F0      		brlo .L641
 8430 351e 80E0      		ldi r24,lo8(0)
 8431               	.L641:
 8432 3520 982F      		mov r25,r24
 8433 3522 9A0F      		add r25,r26
 8434 3524 81E0      		ldi r24,lo8(1)
 8435 3526 9A17      		cp r25,r26
 8436 3528 00F0      		brlo .L643
 8437 352a 80E0      		ldi r24,lo8(0)
 8438               	.L643:
 8439 352c 810F      		add r24,r17
 8440 352e ED85      		ldd r30,Y+13
 8441 3530 FE85      		ldd r31,Y+14
 8442 3532 B1A7      		std Z+41,r27
 8443 3534 02A7      		std Z+42,r16
 8444 3536 73A7      		std Z+43,r23
 8445 3538 54A7      		std Z+44,r21
 8446 353a 35A7      		std Z+45,r19
 8447 353c 26A7      		std Z+46,r18
 8448 353e 97A7      		std Z+47,r25
 8449 3540 80AB      		std Z+48,r24
 8450               	.LM381:
 8451 3542 8EE2      		ldi r24,lo8(46)
 8452 3544 8183      		std Z+1,r24
 8453               	.LM382:
 8454 3546 EF81      		ldd r30,Y+7
 8455 3548 F885      		ldd r31,Y+8
 8456 354a 83A1      		ldd r24,Z+35
 8457 354c 94A1      		ldd r25,Z+36
 8458 354e A5A1      		ldd r26,Z+37
 8459 3550 B6A1      		ldd r27,Z+38
 8460 3552 ED85      		ldd r30,Y+13
 8461 3554 FE85      		ldd r31,Y+14
 8462 3556 81A3      		std Z+33,r24
 8463 3558 92A3      		std Z+34,r25
 8464 355a A3A3      		std Z+35,r26
 8465 355c B4A3      		std Z+36,r27
 8466               	.LM383:
 8467 355e 8D81      		ldd r24,Y+5
 8468 3560 9E81      		ldd r25,Y+6
 8469 3562 BF01      		movw r22,r30
 8470 3564 0E94 0000 		call fat_write_dir_entry
 8471 3568 8823      		tst r24
 8472 356a 01F4      		brne .+2
 8473 356c 00C0      		rjmp .L646
 8474               	.L644:
 8475               	.LM384:
 8476 356e 8B85      		ldd r24,Y+11
 8477 3570 9C85      		ldd r25,Y+12
 8478 3572 6985      		ldd r22,Y+9
 8479 3574 7A85      		ldd r23,Y+10
 8480 3576 4FE1      		ldi r20,lo8(31)
 8481 3578 50E0      		ldi r21,hi8(31)
 8482 357a 0E94 0000 		call strncpy
 8483               	.LM385:
 8484 357e 8981      		ldd r24,Y+1
 8485 3580 9A81      		ldd r25,Y+2
 8486 3582 AB81      		ldd r26,Y+3
 8487 3584 BC81      		ldd r27,Y+4
 8488 3586 ED85      		ldd r30,Y+13
 8489 3588 FE85      		ldd r31,Y+14
 8490 358a 81A3      		std Z+33,r24
 8491 358c 92A3      		std Z+34,r25
 8492 358e A3A3      		std Z+35,r26
 8493 3590 B4A3      		std Z+36,r27
 8494               	.LM386:
 8495 3592 8D81      		ldd r24,Y+5
 8496 3594 9E81      		ldd r25,Y+6
 8497 3596 6F81      		ldd r22,Y+7
 8498 3598 7885      		ldd r23,Y+8
 8499 359a AF01      		movw r20,r30
 8500 359c 0E94 0000 		call fat_find_offset_for_dir_entry
 8501 35a0 AD85      		ldd r26,Y+13
 8502 35a2 BE85      		ldd r27,Y+14
 8503 35a4 9996      		adiw r26,41
 8504 35a6 2C93      		st X,r18
 8505 35a8 9997      		sbiw r26,41
 8506 35aa 9A96      		adiw r26,42
 8507 35ac 3C93      		st X,r19
 8508 35ae 9A97      		sbiw r26,42
 8509 35b0 9B96      		adiw r26,43
 8510 35b2 4C93      		st X,r20
 8511 35b4 9B97      		sbiw r26,43
 8512 35b6 9C96      		adiw r26,44
 8513 35b8 5C93      		st X,r21
 8514 35ba 9C97      		sbiw r26,44
 8515 35bc 9D96      		adiw r26,45
 8516 35be 6C93      		st X,r22
 8517 35c0 9D97      		sbiw r26,45
 8518 35c2 9E96      		adiw r26,46
 8519 35c4 7C93      		st X,r23
 8520 35c6 9E97      		sbiw r26,46
 8521 35c8 9F96      		adiw r26,47
 8522 35ca 8C93      		st X,r24
 8523 35cc 9F97      		sbiw r26,47
 8524 35ce D096      		adiw r26,48
 8525 35d0 9C93      		st X,r25
 8526 35d2 232B      		or r18,r19
 8527 35d4 242B      		or r18,r20
 8528 35d6 252B      		or r18,r21
 8529 35d8 262B      		or r18,r22
 8530 35da 272B      		or r18,r23
 8531 35dc 282B      		or r18,r24
 8532 35de 292B      		or r18,r25
 8533 35e0 01F0      		breq .L646
 8534               	.L645:
 8535               	.LM387:
 8536 35e2 8D81      		ldd r24,Y+5
 8537 35e4 9E81      		ldd r25,Y+6
 8538 35e6 6D85      		ldd r22,Y+13
 8539 35e8 7E85      		ldd r23,Y+14
 8540 35ea 0E94 0000 		call fat_write_dir_entry
 8541 35ee 8823      		tst r24
 8542 35f0 01F0      		breq .L646
 8543 35f2 81E0      		ldi r24,lo8(1)
 8544 35f4 00C0      		rjmp .L615
 8545               	.L646:
 8546               	.LM388:
 8547 35f6 8D81      		ldd r24,Y+5
 8548 35f8 9E81      		ldd r25,Y+6
 8549 35fa 4981      		ldd r20,Y+1
 8550 35fc 5A81      		ldd r21,Y+2
 8551 35fe 6B81      		ldd r22,Y+3
 8552 3600 7C81      		ldd r23,Y+4
 8553 3602 0E94 0000 		call fat_free_clusters
 8554               	.LVL585:
 8555               	.L612:
 8556               	.LM389:
 8557 3606 80E0      		ldi r24,lo8(0)
 8558               	.L615:
 8559               	/* epilogue start */
 8560               	.LM390:
 8561 3608 2E96      		adiw r28,14
 8562 360a 0FB6      		in __tmp_reg__,__SREG__
 8563 360c F894      		cli
 8564 360e DEBF      		out __SP_H__,r29
 8565 3610 0FBE      		out __SREG__,__tmp_reg__
 8566 3612 CDBF      		out __SP_L__,r28
 8567 3614 CF91      		pop r28
 8568 3616 DF91      		pop r29
 8569 3618 1F91      		pop r17
 8570 361a 0F91      		pop r16
 8571 361c FF90      		pop r15
 8572 361e EF90      		pop r14
 8573 3620 DF90      		pop r13
 8574 3622 CF90      		pop r12
 8575 3624 BF90      		pop r11
 8576 3626 AF90      		pop r10
 8577 3628 9F90      		pop r9
 8578 362a 8F90      		pop r8
 8579 362c 7F90      		pop r7
 8580 362e 6F90      		pop r6
 8581 3630 5F90      		pop r5
 8582 3632 4F90      		pop r4
 8583 3634 3F90      		pop r3
 8584 3636 2F90      		pop r2
 8585 3638 0895      		ret
 8586               	.LFE29:
 8588               	.global	fat_create_file
 8590               	fat_create_file:
 8591               	.LFB27:
 8592               	.LM391:
 8593               	.LVL586:
 8594 363a AF92      		push r10
 8595 363c BF92      		push r11
 8596 363e CF92      		push r12
 8597 3640 DF92      		push r13
 8598 3642 EF92      		push r14
 8599 3644 FF92      		push r15
 8600 3646 0F93      		push r16
 8601 3648 1F93      		push r17
 8602 364a CF93      		push r28
 8603 364c DF93      		push r29
 8604               	/* prologue: function */
 8605               	/* frame size = 0 */
 8606 364e 8C01      		movw r16,r24
 8607 3650 7B01      		movw r14,r22
 8608 3652 EA01      		movw r28,r20
 8609               	.LM392:
 8610 3654 0097      		sbiw r24,0
 8611 3656 01F4      		brne .+2
 8612 3658 00C0      		rjmp .L651
 8613               	.LVL587:
 8614 365a 6115      		cp r22,__zero_reg__
 8615 365c 7105      		cpc r23,__zero_reg__
 8616 365e 01F4      		brne .+2
 8617 3660 00C0      		rjmp .L651
 8618               	.LVL588:
 8619 3662 FB01      		movw r30,r22
 8620 3664 8081      		ld r24,Z
 8621               	.LVL589:
 8622 3666 8823      		tst r24
 8623 3668 01F4      		brne .+2
 8624 366a 00C0      		rjmp .L651
 8625 366c 4115      		cp r20,__zero_reg__
 8626 366e 5105      		cpc r21,__zero_reg__
 8627 3670 01F4      		brne .+2
 8628 3672 00C0      		rjmp .L651
 8629               	.LVL590:
 8630               	.LM393:
 8631 3674 B42E      		mov r11,r20
 8632 3676 AD2E      		mov r10,r29
 8633               	.LVL591:
 8634               	.L653:
 8635               	.LM394:
 8636 3678 C801      		movw r24,r16
 8637 367a BE01      		movw r22,r28
 8638 367c 0E94 0000 		call fat_read_dir
 8639 3680 8823      		tst r24
 8640 3682 01F0      		breq .L652
 8641               	.LM395:
 8642 3684 C701      		movw r24,r14
 8643 3686 6B2D      		mov r22,r11
 8644 3688 7A2D      		mov r23,r10
 8645 368a 0E94 0000 		call strcmp
 8646 368e 0097      		sbiw r24,0
 8647 3690 01F4      		brne .L653
 8648               	.LBB86:
 8649               	.LBB87:
 8650               	.LM396:
 8651 3692 F801      		movw r30,r16
 8652 3694 83A1      		ldd r24,Z+35
 8653 3696 94A1      		ldd r25,Z+36
 8654 3698 A5A1      		ldd r26,Z+37
 8655 369a B6A1      		ldd r27,Z+38
 8656 369c 83AB      		std Z+51,r24
 8657 369e 94AB      		std Z+52,r25
 8658 36a0 A5AB      		std Z+53,r26
 8659 36a2 B6AB      		std Z+54,r27
 8660               	.LM397:
 8661 36a4 10AE      		std Z+56,__zero_reg__
 8662 36a6 17AA      		std Z+55,__zero_reg__
 8663 36a8 00C0      		rjmp .L651
 8664               	.L652:
 8665               	.LBE87:
 8666               	.LBE86:
 8667               	.LM398:
 8668 36aa F801      		movw r30,r16
 8669 36ac C080      		ld r12,Z
 8670 36ae D180      		ldd r13,Z+1
 8671               	.LVL592:
 8672               	.LM399:
 8673 36b0 81E3      		ldi r24,lo8(49)
 8674 36b2 FE01      		movw r30,r28
 8675 36b4 1192      		st Z+,__zero_reg__
 8676 36b6 8A95      	        dec r24
 8677 36b8 01F4      		brne .-6
 8678               	.LM400:
 8679 36ba 8B2D      		mov r24,r11
 8680 36bc 9A2D      		mov r25,r10
 8681 36be B701      		movw r22,r14
 8682 36c0 4FE1      		ldi r20,lo8(31)
 8683 36c2 50E0      		ldi r21,hi8(31)
 8684 36c4 0E94 0000 		call strncpy
 8685               	.LM401:
 8686 36c8 C601      		movw r24,r12
 8687 36ca B801      		movw r22,r16
 8688 36cc AE01      		movw r20,r28
 8689 36ce 0E94 0000 		call fat_find_offset_for_dir_entry
 8690 36d2 29A7      		std Y+41,r18
 8691 36d4 3AA7      		std Y+42,r19
 8692 36d6 4BA7      		std Y+43,r20
 8693 36d8 5CA7      		std Y+44,r21
 8694 36da 6DA7      		std Y+45,r22
 8695 36dc 7EA7      		std Y+46,r23
 8696 36de 8FA7      		std Y+47,r24
 8697 36e0 98AB      		std Y+48,r25
 8698 36e2 232B      		or r18,r19
 8699 36e4 242B      		or r18,r20
 8700 36e6 252B      		or r18,r21
 8701 36e8 262B      		or r18,r22
 8702 36ea 272B      		or r18,r23
 8703 36ec 282B      		or r18,r24
 8704 36ee 292B      		or r18,r25
 8705 36f0 01F0      		breq .L651
 8706               	.LM402:
 8707 36f2 C601      		movw r24,r12
 8708 36f4 BE01      		movw r22,r28
 8709 36f6 0E94 0000 		call fat_write_dir_entry
 8710 36fa 8823      		tst r24
 8711 36fc 01F0      		breq .L654
 8712 36fe 81E0      		ldi r24,lo8(1)
 8713 3700 00C0      		rjmp .L654
 8714               	.LVL593:
 8715               	.L651:
 8716 3702 80E0      		ldi r24,lo8(0)
 8717               	.L654:
 8718               	/* epilogue start */
 8719               	.LM403:
 8720 3704 DF91      		pop r29
 8721               	.LVL594:
 8722 3706 CF91      		pop r28
 8723               	.LVL595:
 8724 3708 1F91      		pop r17
 8725 370a 0F91      		pop r16
 8726               	.LVL596:
 8727 370c FF90      		pop r15
 8728 370e EF90      		pop r14
 8729               	.LVL597:
 8730 3710 DF90      		pop r13
 8731 3712 CF90      		pop r12
 8732               	.LVL598:
 8733 3714 BF90      		pop r11
 8734 3716 AF90      		pop r10
 8735 3718 0895      		ret
 8736               	.LFE27:
 8738               	.global	fat_resize_file
 8740               	fat_resize_file:
 8741               	.LFB18:
 8742               	.LM404:
 8743               	.LVL599:
 8744 371a 2F92      		push r2
 8745 371c 3F92      		push r3
 8746 371e 4F92      		push r4
 8747 3720 5F92      		push r5
 8748 3722 6F92      		push r6
 8749 3724 7F92      		push r7
 8750 3726 8F92      		push r8
 8751 3728 9F92      		push r9
 8752 372a AF92      		push r10
 8753 372c BF92      		push r11
 8754 372e CF92      		push r12
 8755 3730 DF92      		push r13
 8756 3732 EF92      		push r14
 8757 3734 FF92      		push r15
 8758 3736 0F93      		push r16
 8759 3738 1F93      		push r17
 8760 373a DF93      		push r29
 8761 373c CF93      		push r28
 8762 373e CDB7      		in r28,__SP_L__
 8763 3740 DEB7      		in r29,__SP_H__
 8764 3742 6297      		sbiw r28,18
 8765 3744 0FB6      		in __tmp_reg__,__SREG__
 8766 3746 F894      		cli
 8767 3748 DEBF      		out __SP_H__,r29
 8768 374a 0FBE      		out __SREG__,__tmp_reg__
 8769 374c CDBF      		out __SP_L__,r28
 8770               	/* prologue: function */
 8771               	/* frame size = 18 */
 8772 374e 1C01      		movw r2,r24
 8773 3750 4B87      		std Y+11,r20
 8774 3752 5C87      		std Y+12,r21
 8775 3754 6D87      		std Y+13,r22
 8776 3756 7E87      		std Y+14,r23
 8777               	.LM405:
 8778 3758 0097      		sbiw r24,0
 8779 375a 01F4      		brne .+2
 8780 375c 00C0      		rjmp .L659
 8781               	.LVL600:
 8782               	.LM406:
 8783 375e DC01      		movw r26,r24
 8784 3760 9396      		adiw r26,35
 8785 3762 CD90      		ld r12,X+
 8786 3764 DD90      		ld r13,X+
 8787 3766 ED90      		ld r14,X+
 8788 3768 FC90      		ld r15,X
 8789 376a 9697      		sbiw r26,35+3
 8790               	.LVL601:
 8791               	.LM407:
 8792 376c ED91      		ld r30,X+
 8793 376e FC91      		ld r31,X
 8794 3770 208D      		ldd r18,Z+24
 8795 3772 318D      		ldd r19,Z+25
 8796               	.LVL602:
 8797               	.LM408:
 8798 3774 C114      		cp r12,__zero_reg__
 8799 3776 D104      		cpc r13,__zero_reg__
 8800 3778 E104      		cpc r14,__zero_reg__
 8801 377a F104      		cpc r15,__zero_reg__
 8802 377c 01F0      		breq .L660
 8803               	.LVL603:
 8804               	.L663:
 8805 377e 4B84      		ldd r4,Y+11
 8806 3780 5C84      		ldd r5,Y+12
 8807 3782 6D84      		ldd r6,Y+13
 8808 3784 7E84      		ldd r7,Y+14
 8809               	.LVL604:
 8810               	.LM409:
 8811 3786 4901      		movw r8,r18
 8812 3788 AA24      		clr r10
 8813 378a BB24      		clr r11
 8814               	.LBB88:
 8815               	.LM410:
 8816 378c 2227      		clr r18
 8817 378e 3327      		clr r19
 8818 3790 A901      		movw r20,r18
 8819 3792 2819      		sub r18,r8
 8820 3794 3909      		sbc r19,r9
 8821 3796 4A09      		sbc r20,r10
 8822 3798 5B09      		sbc r21,r11
 8823               	.LVL605:
 8824 379a 2F87      		std Y+15,r18
 8825 379c 388B      		std Y+16,r19
 8826 379e 498B      		std Y+17,r20
 8827 37a0 5A8B      		std Y+18,r21
 8828 37a2 00C0      		rjmp .L661
 8829               	.LVL606:
 8830               	.L660:
 8831               	.LBE88:
 8832               	.LM411:
 8833 37a4 8B85      		ldd r24,Y+11
 8834 37a6 9C85      		ldd r25,Y+12
 8835 37a8 AD85      		ldd r26,Y+13
 8836 37aa BE85      		ldd r27,Y+14
 8837               	.LVL607:
 8838 37ac 0097      		sbiw r24,0
 8839 37ae A105      		cpc r26,__zero_reg__
 8840 37b0 B105      		cpc r27,__zero_reg__
 8841 37b2 01F4      		brne .+2
 8842 37b4 00C0      		rjmp .L662
 8843 37b6 00C0      		rjmp .L663
 8844               	.LVL608:
 8845               	.L665:
 8846               	.LBB89:
 8847               	.LM412:
 8848 37b8 D101      		movw r26,r2
 8849 37ba 8D91      		ld r24,X+
 8850 37bc 9C91      		ld r25,X
 8851 37be B701      		movw r22,r14
 8852 37c0 A601      		movw r20,r12
 8853 37c2 0E94 0000 		call fat_get_next_cluster
 8854               	.LVL609:
 8855               	.LM413:
 8856 37c6 6115      		cp r22,__zero_reg__
 8857 37c8 7105      		cpc r23,__zero_reg__
 8858 37ca 8105      		cpc r24,__zero_reg__
 8859 37cc 9105      		cpc r25,__zero_reg__
 8860               	.LVL610:
 8861 37ce 01F0      		breq .L701
 8862               	.LM414:
 8863 37d0 2F85      		ldd r18,Y+15
 8864 37d2 3889      		ldd r19,Y+16
 8865 37d4 4989      		ldd r20,Y+17
 8866 37d6 5A89      		ldd r21,Y+18
 8867 37d8 420E      		add r4,r18
 8868 37da 531E      		adc r5,r19
 8869 37dc 641E      		adc r6,r20
 8870 37de 751E      		adc r7,r21
 8871 37e0 6B01      		movw r12,r22
 8872 37e2 7C01      		movw r14,r24
 8873               	.LVL611:
 8874               	.L661:
 8875               	.LBE89:
 8876               	.LM415:
 8877 37e4 8414      		cp r8,r4
 8878 37e6 9504      		cpc r9,r5
 8879 37e8 A604      		cpc r10,r6
 8880 37ea B704      		cpc r11,r7
 8881 37ec 00F0      		brlo .L665
 8882 37ee 00C0      		rjmp .L709
 8883               	.L701:
 8884               	.LBB90:
 8885               	.LM416:
 8886 37f0 C301      		movw r24,r6
 8887 37f2 B201      		movw r22,r4
 8888               	.LVL612:
 8889 37f4 680D      		add r22,r8
 8890 37f6 791D      		adc r23,r9
 8891 37f8 8A1D      		adc r24,r10
 8892 37fa 9B1D      		adc r25,r11
 8893 37fc 6150      		subi r22,lo8(-(-1))
 8894 37fe 7040      		sbci r23,hi8(-(-1))
 8895 3800 8040      		sbci r24,hlo8(-(-1))
 8896 3802 9040      		sbci r25,hhi8(-(-1))
 8897 3804 A501      		movw r20,r10
 8898 3806 9401      		movw r18,r8
 8899 3808 0E94 0000 		call __udivmodsi4
 8900 380c 8901      		movw r16,r18
 8901 380e 9A01      		movw r18,r20
 8902 3810 D101      		movw r26,r2
 8903 3812 8D91      		ld r24,X+
 8904 3814 9C91      		ld r25,X
 8905 3816 B701      		movw r22,r14
 8906 3818 A601      		movw r20,r12
 8907 381a 0E94 0000 		call fat_append_clusters
 8908               	.LM417:
 8909 381e 6115      		cp r22,__zero_reg__
 8910 3820 7105      		cpc r23,__zero_reg__
 8911 3822 8105      		cpc r24,__zero_reg__
 8912 3824 9105      		cpc r25,__zero_reg__
 8913               	.LVL613:
 8914 3826 01F4      		brne .+2
 8915 3828 00C0      		rjmp .L659
 8916               	.LM418:
 8917 382a C114      		cp r12,__zero_reg__
 8918 382c D104      		cpc r13,__zero_reg__
 8919 382e E104      		cpc r14,__zero_reg__
 8920 3830 F104      		cpc r15,__zero_reg__
 8921 3832 01F4      		brne .L667
 8922               	.LM419:
 8923 3834 F101      		movw r30,r2
 8924 3836 63A3      		std Z+35,r22
 8925 3838 74A3      		std Z+36,r23
 8926 383a 85A3      		std Z+37,r24
 8927 383c 96A3      		std Z+38,r25
 8928 383e 6B01      		movw r12,r22
 8929 3840 7C01      		movw r14,r24
 8930               	.LVL614:
 8931               	.L667:
 8932               	.LBE90:
 8933               	.LM420:
 8934 3842 2B85      		ldd r18,Y+11
 8935 3844 3C85      		ldd r19,Y+12
 8936 3846 4D85      		ldd r20,Y+13
 8937 3848 5E85      		ldd r21,Y+14
 8938 384a D101      		movw r26,r2
 8939 384c 9796      		adiw r26,39
 8940 384e 2D93      		st X+,r18
 8941 3850 3D93      		st X+,r19
 8942 3852 4D93      		st X+,r20
 8943 3854 5C93      		st X,r21
 8944 3856 9A97      		sbiw r26,39+3
 8945               	.LM421:
 8946 3858 2115      		cp r18,__zero_reg__
 8947 385a 3105      		cpc r19,__zero_reg__
 8948 385c 4105      		cpc r20,__zero_reg__
 8949 385e 5105      		cpc r21,__zero_reg__
 8950 3860 01F4      		brne .L668
 8951               	.LM422:
 8952 3862 F101      		movw r30,r2
 8953 3864 13A2      		std Z+35,__zero_reg__
 8954 3866 14A2      		std Z+36,__zero_reg__
 8955 3868 15A2      		std Z+37,__zero_reg__
 8956 386a 16A2      		std Z+38,__zero_reg__
 8957               	.L668:
 8958               	.LM423:
 8959 386c F101      		movw r30,r2
 8960 386e 8191      		ld r24,Z+
 8961 3870 9191      		ld r25,Z+
 8962 3872 BF01      		movw r22,r30
 8963               	.LVL615:
 8964 3874 0E94 0000 		call fat_write_dir_entry
 8965 3878 8823      		tst r24
 8966 387a 01F4      		brne .+2
 8967 387c 00C0      		rjmp .L659
 8968               	.LM424:
 8969 387e 2B85      		ldd r18,Y+11
 8970 3880 3C85      		ldd r19,Y+12
 8971 3882 4D85      		ldd r20,Y+13
 8972 3884 5E85      		ldd r21,Y+14
 8973 3886 2115      		cp r18,__zero_reg__
 8974 3888 3105      		cpc r19,__zero_reg__
 8975 388a 4105      		cpc r20,__zero_reg__
 8976 388c 5105      		cpc r21,__zero_reg__
 8977 388e 01F4      		brne .L669
 8978               	.LM425:
 8979 3890 D101      		movw r26,r2
 8980 3892 8D91      		ld r24,X+
 8981 3894 9C91      		ld r25,X
 8982 3896 B701      		movw r22,r14
 8983 3898 A601      		movw r20,r12
 8984 389a 00C0      		rjmp .L707
 8985               	.L669:
 8986               	.LM426:
 8987 389c 8414      		cp r8,r4
 8988 389e 9504      		cpc r9,r5
 8989 38a0 A604      		cpc r10,r6
 8990 38a2 B704      		cpc r11,r7
 8991 38a4 00F4      		brsh .+2
 8992 38a6 00C0      		rjmp .L662
 8993               	.LM427:
 8994 38a8 F101      		movw r30,r2
 8995 38aa A080      		ld r10,Z
 8996 38ac B180      		ldd r11,Z+1
 8997               	.LBB91:
 8998               	.LBB92:
 8999               	.LM428:
 9000 38ae A114      		cp r10,__zero_reg__
 9001 38b0 B104      		cpc r11,__zero_reg__
 9002 38b2 01F4      		brne .+2
 9003 38b4 00C0      		rjmp .L662
 9004 38b6 F2E0      		ldi r31,lo8(2)
 9005 38b8 CF16      		cp r12,r31
 9006 38ba D104      		cpc r13,__zero_reg__
 9007 38bc E104      		cpc r14,__zero_reg__
 9008 38be F104      		cpc r15,__zero_reg__
 9009 38c0 00F4      		brsh .+2
 9010 38c2 00C0      		rjmp .L662
 9011               	.LBE92:
 9012               	.LM429:
 9013 38c4 C501      		movw r24,r10
 9014 38c6 B701      		movw r22,r14
 9015 38c8 A601      		movw r20,r12
 9016 38ca 0E94 0000 		call fat_get_next_cluster
 9017 38ce 6F83      		std Y+7,r22
 9018 38d0 7887      		std Y+8,r23
 9019 38d2 8987      		std Y+9,r24
 9020 38d4 9A87      		std Y+10,r25
 9021               	.LVL616:
 9022               	.LBB96:
 9023               	.LM430:
 9024 38d6 D501      		movw r26,r10
 9025 38d8 8D90      		ld r8,X+
 9026 38da 9C90      		ld r9,X
 9027 38dc F401      		movw r30,r8
 9028 38de 8085      		ldd r24,Z+8
 9029 38e0 8B30      		cpi r24,lo8(11)
 9030 38e2 01F0      		breq .+2
 9031 38e4 00C0      		rjmp .L670
 9032               	.LBB94:
 9033               	.LM431:
 9034 38e6 8FEF      		ldi r24,lo8(268435455)
 9035 38e8 9FEF      		ldi r25,hi8(268435455)
 9036 38ea AFEF      		ldi r26,hlo8(268435455)
 9037 38ec BFE0      		ldi r27,hhi8(268435455)
 9038 38ee 8B83      		std Y+3,r24
 9039 38f0 9C83      		std Y+4,r25
 9040 38f2 AD83      		std Y+5,r26
 9041 38f4 BE83      		std Y+6,r27
 9042               	.LVL617:
 9043               	.LBE94:
 9044               	.LBE96:
 9045               	.LM432:
 9046 38f6 B2E0      		ldi r27,2
 9047 38f8 CC0C      	1:	lsl r12
 9048 38fa DD1C      		rol r13
 9049 38fc EE1C      		rol r14
 9050 38fe FF1C      		rol r15
 9051 3900 BA95      		dec r27
 9052 3902 01F4      		brne 1b
 9053 3904 B701      		movw r22,r14
 9054 3906 A601      		movw r20,r12
 9055 3908 80E0      		ldi r24,lo8(0)
 9056 390a 90E0      		ldi r25,hi8(0)
 9057 390c A0E0      		ldi r26,hlo8(0)
 9058 390e B0E0      		ldi r27,hhi8(0)
 9059 3910 F501      		movw r30,r10
 9060 3912 2285      		ldd r18,Z+10
 9061 3914 1385      		ldd r17,Z+11
 9062 3916 0485      		ldd r16,Z+12
 9063 3918 C584      		ldd r12,Z+13
 9064               	.LVL618:
 9065 391a F684      		ldd r15,Z+14
 9066 391c E784      		ldd r14,Z+15
 9067 391e D088      		ldd r13,Z+16
 9068 3920 5188      		ldd r5,Z+17
 9069 3922 240F      		add r18,r20
 9070 3924 31E0      		ldi r19,lo8(1)
 9071 3926 2417      		cp r18,r20
 9072 3928 00F0      		brlo .L671
 9073 392a 30E0      		ldi r19,lo8(0)
 9074               	.L671:
 9075 392c E12F      		mov r30,r17
 9076 392e E50F      		add r30,r21
 9077 3930 11E0      		ldi r17,lo8(1)
 9078 3932 E517      		cp r30,r21
 9079 3934 00F0      		brlo .L672
 9080 3936 10E0      		ldi r17,lo8(0)
 9081               	.L672:
 9082 3938 3E0F      		add r19,r30
 9083 393a F1E0      		ldi r31,lo8(1)
 9084 393c 3E17      		cp r19,r30
 9085 393e 00F0      		brlo .L673
 9086 3940 F0E0      		ldi r31,lo8(0)
 9087               	.L673:
 9088 3942 1F2B      		or r17,r31
 9089 3944 E62F      		mov r30,r22
 9090 3946 E00F      		add r30,r16
 9091 3948 01E0      		ldi r16,lo8(1)
 9092 394a E617      		cp r30,r22
 9093 394c 00F0      		brlo .L674
 9094 394e 00E0      		ldi r16,lo8(0)
 9095               	.L674:
 9096 3950 612E      		mov r6,r17
 9097 3952 6E0E      		add r6,r30
 9098 3954 F1E0      		ldi r31,lo8(1)
 9099 3956 6E16      		cp r6,r30
 9100 3958 00F0      		brlo .L675
 9101 395a F0E0      		ldi r31,lo8(0)
 9102               	.L675:
 9103 395c 0F2B      		or r16,r31
 9104 395e E72F      		mov r30,r23
 9105 3960 EC0D      		add r30,r12
 9106 3962 F1E0      		ldi r31,lo8(1)
 9107 3964 E717      		cp r30,r23
 9108 3966 00F0      		brlo .L676
 9109 3968 F0E0      		ldi r31,lo8(0)
 9110               	.L676:
 9111 396a 702E      		mov r7,r16
 9112 396c 7E0E      		add r7,r30
 9113 396e 11E0      		ldi r17,lo8(1)
 9114 3970 7E16      		cp r7,r30
 9115 3972 00F0      		brlo .L677
 9116 3974 10E0      		ldi r17,lo8(0)
 9117               	.L677:
 9118 3976 F12B      		or r31,r17
 9119 3978 E1E0      		ldi r30,lo8(1)
 9120 397a F816      		cp r15,r24
 9121 397c 00F0      		brlo .L678
 9122 397e E0E0      		ldi r30,lo8(0)
 9123               	.L678:
 9124 3980 CF2E      		mov r12,r31
 9125 3982 CF0C      		add r12,r15
 9126 3984 F1E0      		ldi r31,lo8(1)
 9127 3986 CF14      		cp r12,r15
 9128 3988 00F0      		brlo .L679
 9129 398a F0E0      		ldi r31,lo8(0)
 9130               	.L679:
 9131 398c EF2B      		or r30,r31
 9132 398e F1E0      		ldi r31,lo8(1)
 9133 3990 E916      		cp r14,r25
 9134 3992 00F0      		brlo .L680
 9135 3994 F0E0      		ldi r31,lo8(0)
 9136               	.L680:
 9137 3996 0E2F      		mov r16,r30
 9138 3998 0E0D      		add r16,r14
 9139 399a E1E0      		ldi r30,lo8(1)
 9140 399c 0E15      		cp r16,r14
 9141 399e 00F0      		brlo .L681
 9142 39a0 E0E0      		ldi r30,lo8(0)
 9143               	.L681:
 9144 39a2 FE2B      		or r31,r30
 9145 39a4 11E0      		ldi r17,lo8(1)
 9146 39a6 DA16      		cp r13,r26
 9147 39a8 00F0      		brlo .L682
 9148 39aa 10E0      		ldi r17,lo8(0)
 9149               	.L682:
 9150 39ac 8F2F      		mov r24,r31
 9151 39ae 8D0D      		add r24,r13
 9152 39b0 E1E0      		ldi r30,lo8(1)
 9153 39b2 8D15      		cp r24,r13
 9154 39b4 00F0      		brlo .L683
 9155 39b6 E0E0      		ldi r30,lo8(0)
 9156               	.L683:
 9157 39b8 1E2B      		or r17,r30
 9158 39ba D401      		movw r26,r8
 9159 39bc 1496      		adiw r26,4
 9160 39be ED91      		ld r30,X+
 9161 39c0 FC91      		ld r31,X
 9162 39c2 1597      		sbiw r26,4+1
 9163 39c4 A301      		movw r20,r6
 9164 39c6 6C2D      		mov r22,r12
 9165 39c8 702F      		mov r23,r16
 9166 39ca 912F      		mov r25,r17
 9167 39cc 950D      		add r25,r5
 9168 39ce 8E01      		movw r16,r28
 9169 39d0 0D5F      		subi r16,lo8(-(3))
 9170 39d2 1F4F      		sbci r17,hi8(-(3))
 9171 39d4 A4E0      		ldi r26,lo8(4)
 9172 39d6 EA2E      		mov r14,r26
 9173 39d8 F12C      		mov r15,__zero_reg__
 9174 39da 00C0      		rjmp .L706
 9175               	.LVL619:
 9176               	.L670:
 9177               	.LBB97:
 9178               	.LBB93:
 9179               	.LM433:
 9180 39dc 8FEF      		ldi r24,lo8(-1)
 9181 39de 9FEF      		ldi r25,hi8(-1)
 9182 39e0 9A83      		std Y+2,r25
 9183 39e2 8983      		std Y+1,r24
 9184               	.LVL620:
 9185               	.LBE93:
 9186               	.LBE97:
 9187               	.LM434:
 9188 39e4 CC0C      		lsl r12
 9189 39e6 DD1C      		rol r13
 9190 39e8 EE1C      		rol r14
 9191 39ea FF1C      		rol r15
 9192 39ec B701      		movw r22,r14
 9193 39ee A601      		movw r20,r12
 9194 39f0 80E0      		ldi r24,lo8(0)
 9195 39f2 90E0      		ldi r25,hi8(0)
 9196 39f4 A0E0      		ldi r26,hlo8(0)
 9197 39f6 B0E0      		ldi r27,hhi8(0)
 9198 39f8 F501      		movw r30,r10
 9199 39fa 2285      		ldd r18,Z+10
 9200 39fc 1385      		ldd r17,Z+11
 9201 39fe 0485      		ldd r16,Z+12
 9202 3a00 C584      		ldd r12,Z+13
 9203               	.LVL621:
 9204 3a02 F684      		ldd r15,Z+14
 9205 3a04 E784      		ldd r14,Z+15
 9206 3a06 D088      		ldd r13,Z+16
 9207 3a08 5188      		ldd r5,Z+17
 9208 3a0a 240F      		add r18,r20
 9209 3a0c 31E0      		ldi r19,lo8(1)
 9210 3a0e 2417      		cp r18,r20
 9211 3a10 00F0      		brlo .L685
 9212 3a12 30E0      		ldi r19,lo8(0)
 9213               	.L685:
 9214 3a14 E12F      		mov r30,r17
 9215 3a16 E50F      		add r30,r21
 9216 3a18 11E0      		ldi r17,lo8(1)
 9217 3a1a E517      		cp r30,r21
 9218 3a1c 00F0      		brlo .L686
 9219 3a1e 10E0      		ldi r17,lo8(0)
 9220               	.L686:
 9221 3a20 3E0F      		add r19,r30
 9222 3a22 F1E0      		ldi r31,lo8(1)
 9223 3a24 3E17      		cp r19,r30
 9224 3a26 00F0      		brlo .L687
 9225 3a28 F0E0      		ldi r31,lo8(0)
 9226               	.L687:
 9227 3a2a 1F2B      		or r17,r31
 9228 3a2c E62F      		mov r30,r22
 9229 3a2e E00F      		add r30,r16
 9230 3a30 01E0      		ldi r16,lo8(1)
 9231 3a32 E617      		cp r30,r22
 9232 3a34 00F0      		brlo .L688
 9233 3a36 00E0      		ldi r16,lo8(0)
 9234               	.L688:
 9235 3a38 612E      		mov r6,r17
 9236 3a3a 6E0E      		add r6,r30
 9237 3a3c F1E0      		ldi r31,lo8(1)
 9238 3a3e 6E16      		cp r6,r30
 9239 3a40 00F0      		brlo .L689
 9240 3a42 F0E0      		ldi r31,lo8(0)
 9241               	.L689:
 9242 3a44 0F2B      		or r16,r31
 9243 3a46 E72F      		mov r30,r23
 9244 3a48 EC0D      		add r30,r12
 9245 3a4a F1E0      		ldi r31,lo8(1)
 9246 3a4c E717      		cp r30,r23
 9247 3a4e 00F0      		brlo .L690
 9248 3a50 F0E0      		ldi r31,lo8(0)
 9249               	.L690:
 9250 3a52 702E      		mov r7,r16
 9251 3a54 7E0E      		add r7,r30
 9252 3a56 11E0      		ldi r17,lo8(1)
 9253 3a58 7E16      		cp r7,r30
 9254 3a5a 00F0      		brlo .L691
 9255 3a5c 10E0      		ldi r17,lo8(0)
 9256               	.L691:
 9257 3a5e F12B      		or r31,r17
 9258 3a60 E1E0      		ldi r30,lo8(1)
 9259 3a62 F816      		cp r15,r24
 9260 3a64 00F0      		brlo .L692
 9261 3a66 E0E0      		ldi r30,lo8(0)
 9262               	.L692:
 9263 3a68 CF2E      		mov r12,r31
 9264 3a6a CF0C      		add r12,r15
 9265 3a6c F1E0      		ldi r31,lo8(1)
 9266 3a6e CF14      		cp r12,r15
 9267 3a70 00F0      		brlo .L693
 9268 3a72 F0E0      		ldi r31,lo8(0)
 9269               	.L693:
 9270 3a74 EF2B      		or r30,r31
 9271 3a76 F1E0      		ldi r31,lo8(1)
 9272 3a78 E916      		cp r14,r25
 9273 3a7a 00F0      		brlo .L694
 9274 3a7c F0E0      		ldi r31,lo8(0)
 9275               	.L694:
 9276 3a7e 0E2F      		mov r16,r30
 9277 3a80 0E0D      		add r16,r14
 9278 3a82 E1E0      		ldi r30,lo8(1)
 9279 3a84 0E15      		cp r16,r14
 9280 3a86 00F0      		brlo .L695
 9281 3a88 E0E0      		ldi r30,lo8(0)
 9282               	.L695:
 9283 3a8a FE2B      		or r31,r30
 9284 3a8c 11E0      		ldi r17,lo8(1)
 9285 3a8e DA16      		cp r13,r26
 9286 3a90 00F0      		brlo .L696
 9287 3a92 10E0      		ldi r17,lo8(0)
 9288               	.L696:
 9289 3a94 8F2F      		mov r24,r31
 9290 3a96 8D0D      		add r24,r13
 9291 3a98 E1E0      		ldi r30,lo8(1)
 9292 3a9a 8D15      		cp r24,r13
 9293 3a9c 00F0      		brlo .L697
 9294 3a9e E0E0      		ldi r30,lo8(0)
 9295               	.L697:
 9296 3aa0 1E2B      		or r17,r30
 9297 3aa2 D401      		movw r26,r8
 9298 3aa4 1496      		adiw r26,4
 9299 3aa6 ED91      		ld r30,X+
 9300 3aa8 FC91      		ld r31,X
 9301 3aaa 1597      		sbiw r26,4+1
 9302 3aac A301      		movw r20,r6
 9303 3aae 6C2D      		mov r22,r12
 9304 3ab0 702F      		mov r23,r16
 9305 3ab2 912F      		mov r25,r17
 9306 3ab4 950D      		add r25,r5
 9307 3ab6 8E01      		movw r16,r28
 9308 3ab8 0F5F      		subi r16,lo8(-(1))
 9309 3aba 1F4F      		sbci r17,hi8(-(1))
 9310 3abc A2E0      		ldi r26,lo8(2)
 9311 3abe EA2E      		mov r14,r26
 9312 3ac0 F12C      		mov r15,__zero_reg__
 9313               	.LVL622:
 9314               	.L706:
 9315 3ac2 0995      		icall
 9316               	.LBB98:
 9317               	.LBB95:
 9318 3ac4 8823      		tst r24
 9319 3ac6 01F0      		breq .L662
 9320               	.LBE95:
 9321               	.LM435:
 9322 3ac8 2F81      		ldd r18,Y+7
 9323 3aca 3885      		ldd r19,Y+8
 9324 3acc 4985      		ldd r20,Y+9
 9325 3ace 5A85      		ldd r21,Y+10
 9326 3ad0 2115      		cp r18,__zero_reg__
 9327 3ad2 3105      		cpc r19,__zero_reg__
 9328 3ad4 4105      		cpc r20,__zero_reg__
 9329 3ad6 5105      		cpc r21,__zero_reg__
 9330 3ad8 01F0      		breq .L662
 9331               	.LM436:
 9332 3ada C501      		movw r24,r10
 9333 3adc BA01      		movw r22,r20
 9334 3ade A901      		movw r20,r18
 9335               	.LVL623:
 9336               	.L707:
 9337 3ae0 0E94 0000 		call fat_free_clusters
 9338               	.LVL624:
 9339               	.L662:
 9340               	.LBE98:
 9341               	.LBE91:
 9342               	.LM437:
 9343 3ae4 8B85      		ldd r24,Y+11
 9344 3ae6 9C85      		ldd r25,Y+12
 9345 3ae8 AD85      		ldd r26,Y+13
 9346 3aea BE85      		ldd r27,Y+14
 9347 3aec 8C01      		movw r16,r24
 9348 3aee 9D01      		movw r18,r26
 9349 3af0 40E0      		ldi r20,lo8(0)
 9350 3af2 50E0      		ldi r21,hi8(0)
 9351 3af4 60E0      		ldi r22,hlo8(0)
 9352 3af6 70E0      		ldi r23,hhi8(0)
 9353 3af8 D101      		movw r26,r2
 9354 3afa DA96      		adiw r26,58
 9355 3afc 8C91      		ld r24,X
 9356 3afe DA97      		sbiw r26,58
 9357 3b00 7817      		cp r23,r24
 9358 3b02 00F0      		brlo .L698
 9359 3b04 8717      		cp r24,r23
 9360 3b06 01F4      		brne .L708
 9361 3b08 D996      		adiw r26,57
 9362 3b0a 8C91      		ld r24,X
 9363 3b0c D997      		sbiw r26,57
 9364 3b0e 6817      		cp r22,r24
 9365 3b10 00F0      		brlo .L698
 9366 3b12 8617      		cp r24,r22
 9367 3b14 01F4      		brne .L708
 9368 3b16 D896      		adiw r26,56
 9369 3b18 8C91      		ld r24,X
 9370 3b1a D897      		sbiw r26,56
 9371 3b1c 5817      		cp r21,r24
 9372 3b1e 00F0      		brlo .L698
 9373 3b20 8517      		cp r24,r21
 9374 3b22 01F4      		brne .L708
 9375 3b24 D796      		adiw r26,55
 9376 3b26 8C91      		ld r24,X
 9377 3b28 D797      		sbiw r26,55
 9378 3b2a 4817      		cp r20,r24
 9379 3b2c 00F0      		brlo .L698
 9380 3b2e 8417      		cp r24,r20
 9381 3b30 01F4      		brne .L708
 9382 3b32 D696      		adiw r26,54
 9383 3b34 8C91      		ld r24,X
 9384 3b36 D697      		sbiw r26,54
 9385 3b38 3817      		cp r19,r24
 9386 3b3a 00F0      		brlo .L698
 9387 3b3c 8317      		cp r24,r19
 9388 3b3e 01F4      		brne .L708
 9389 3b40 D596      		adiw r26,53
 9390 3b42 8C91      		ld r24,X
 9391 3b44 D597      		sbiw r26,53
 9392 3b46 2817      		cp r18,r24
 9393               	.LVL625:
 9394 3b48 00F0      		brlo .L698
 9395 3b4a 8217      		cp r24,r18
 9396 3b4c 01F4      		brne .L708
 9397 3b4e D496      		adiw r26,52
 9398 3b50 8C91      		ld r24,X
 9399 3b52 D497      		sbiw r26,52
 9400 3b54 1817      		cp r17,r24
 9401 3b56 00F0      		brlo .L698
 9402 3b58 8117      		cp r24,r17
 9403 3b5a 01F4      		brne .L708
 9404 3b5c D396      		adiw r26,51
 9405 3b5e 8C91      		ld r24,X
 9406 3b60 0817      		cp r16,r24
 9407 3b62 00F4      		brsh .L708
 9408               	.LVL626:
 9409               	.L698:
 9410               	.LM438:
 9411 3b64 F101      		movw r30,r2
 9412 3b66 03AB      		std Z+51,r16
 9413 3b68 14AB      		std Z+52,r17
 9414 3b6a 25AB      		std Z+53,r18
 9415               	.LVL627:
 9416 3b6c 36AB      		std Z+54,r19
 9417 3b6e 17AA      		std Z+55,__zero_reg__
 9418 3b70 10AE      		std Z+56,__zero_reg__
 9419 3b72 11AE      		std Z+57,__zero_reg__
 9420 3b74 12AE      		std Z+58,__zero_reg__
 9421               	.LM439:
 9422 3b76 D101      		movw r26,r2
 9423 3b78 DB96      		adiw r26,59
 9424 3b7a 1D92      		st X+,__zero_reg__
 9425 3b7c 1D92      		st X+,__zero_reg__
 9426 3b7e 1D92      		st X+,__zero_reg__
 9427 3b80 1C92      		st X,__zero_reg__
 9428 3b82 DE97      		sbiw r26,59+3
 9429               	.LVL628:
 9430               	.L708:
 9431 3b84 81E0      		ldi r24,lo8(1)
 9432 3b86 00C0      		rjmp .L700
 9433               	.LVL629:
 9434               	.L659:
 9435 3b88 80E0      		ldi r24,lo8(0)
 9436               	.LVL630:
 9437               	.L700:
 9438               	/* epilogue start */
 9439               	.LM440:
 9440 3b8a 6296      		adiw r28,18
 9441 3b8c 0FB6      		in __tmp_reg__,__SREG__
 9442 3b8e F894      		cli
 9443 3b90 DEBF      		out __SP_H__,r29
 9444 3b92 0FBE      		out __SREG__,__tmp_reg__
 9445 3b94 CDBF      		out __SP_L__,r28
 9446 3b96 CF91      		pop r28
 9447 3b98 DF91      		pop r29
 9448 3b9a 1F91      		pop r17
 9449 3b9c 0F91      		pop r16
 9450 3b9e FF90      		pop r15
 9451 3ba0 EF90      		pop r14
 9452 3ba2 DF90      		pop r13
 9453 3ba4 CF90      		pop r12
 9454               	.LVL631:
 9455 3ba6 BF90      		pop r11
 9456 3ba8 AF90      		pop r10
 9457 3baa 9F90      		pop r9
 9458 3bac 8F90      		pop r8
 9459 3bae 7F90      		pop r7
 9460 3bb0 6F90      		pop r6
 9461 3bb2 5F90      		pop r5
 9462 3bb4 4F90      		pop r4
 9463               	.LVL632:
 9464 3bb6 3F90      		pop r3
 9465 3bb8 2F90      		pop r2
 9466               	.LVL633:
 9467 3bba 0895      		ret
 9468               	.LVL634:
 9469               	.L709:
 9470               	.LM441:
 9471 3bbc C114      		cp r12,__zero_reg__
 9472 3bbe D104      		cpc r13,__zero_reg__
 9473 3bc0 E104      		cpc r14,__zero_reg__
 9474 3bc2 F104      		cpc r15,__zero_reg__
 9475 3bc4 01F4      		brne .+2
 9476 3bc6 00C0      		rjmp .L701
 9477 3bc8 00C0      		rjmp .L667
 9478               	.LFE18:
 9480               	.global	fat_seek_file
 9482               	fat_seek_file:
 9483               	.LFB17:
 9484               	.LM442:
 9485               	.LVL635:
 9486 3bca CF92      		push r12
 9487 3bcc DF92      		push r13
 9488 3bce EF92      		push r14
 9489 3bd0 FF92      		push r15
 9490 3bd2 0F93      		push r16
 9491 3bd4 1F93      		push r17
 9492 3bd6 CF93      		push r28
 9493 3bd8 DF93      		push r29
 9494               	/* prologue: function */
 9495               	/* frame size = 0 */
 9496 3bda EC01      		movw r28,r24
 9497 3bdc 6B01      		movw r12,r22
 9498               	.LM443:
 9499 3bde 0097      		sbiw r24,0
 9500 3be0 01F4      		brne .+2
 9501 3be2 00C0      		rjmp .L711
 9502               	.LVL636:
 9503 3be4 6115      		cp r22,__zero_reg__
 9504 3be6 7105      		cpc r23,__zero_reg__
 9505 3be8 01F4      		brne .+2
 9506 3bea 00C0      		rjmp .L711
 9507               	.LVL637:
 9508               	.LM444:
 9509 3bec 2BA9      		ldd r18,Y+51
 9510 3bee 3CA9      		ldd r19,Y+52
 9511 3bf0 5DA9      		ldd r21,Y+53
 9512 3bf2 6EA9      		ldd r22,Y+54
 9513               	.LVL638:
 9514               	.LM445:
 9515 3bf4 4130      		cpi r20,lo8(1)
 9516 3bf6 01F0      		breq .L713
 9517               	.LVL639:
 9518 3bf8 4130      		cpi r20,lo8(1)
 9519 3bfa 00F0      		brlo .L712
 9520 3bfc 4230      		cpi r20,lo8(2)
 9521 3bfe 01F0      		breq .+2
 9522 3c00 00C0      		rjmp .L711
 9523 3c02 00C0      		rjmp .L720
 9524               	.L712:
 9525               	.LM446:
 9526 3c04 F601      		movw r30,r12
 9527 3c06 E080      		ld r14,Z
 9528 3c08 F180      		ldd r15,Z+1
 9529 3c0a 0281      		ldd r16,Z+2
 9530 3c0c 1381      		ldd r17,Z+3
 9531               	.LVL640:
 9532 3c0e 00C0      		rjmp .L715
 9533               	.LVL641:
 9534               	.L713:
 9535               	.LM447:
 9536 3c10 C901      		movw r24,r18
 9537 3c12 A52F      		mov r26,r21
 9538               	.LVL642:
 9539 3c14 B62F      		mov r27,r22
 9540               	.LVL643:
 9541               	.LM448:
 9542 3c16 F601      		movw r30,r12
 9543 3c18 E080      		ld r14,Z
 9544 3c1a F180      		ldd r15,Z+1
 9545 3c1c 0281      		ldd r16,Z+2
 9546 3c1e 1381      		ldd r17,Z+3
 9547               	.LVL644:
 9548 3c20 00C0      		rjmp .L719
 9549               	.LVL645:
 9550               	.L720:
 9551               	.LM449:
 9552 3c22 F601      		movw r30,r12
 9553 3c24 E080      		ld r14,Z
 9554 3c26 F180      		ldd r15,Z+1
 9555 3c28 0281      		ldd r16,Z+2
 9556 3c2a 1381      		ldd r17,Z+3
 9557               	.LVL646:
 9558 3c2c 8FA1      		ldd r24,Y+39
 9559 3c2e 98A5      		ldd r25,Y+40
 9560 3c30 A9A5      		ldd r26,Y+41
 9561 3c32 BAA5      		ldd r27,Y+42
 9562               	.LVL647:
 9563               	.L719:
 9564 3c34 E80E      		add r14,r24
 9565 3c36 F91E      		adc r15,r25
 9566 3c38 0A1F      		adc r16,r26
 9567 3c3a 1B1F      		adc r17,r27
 9568               	.LVL648:
 9569               	.L715:
 9570               	.LM450:
 9571 3c3c 8FA1      		ldd r24,Y+39
 9572 3c3e 98A5      		ldd r25,Y+40
 9573 3c40 A9A5      		ldd r26,Y+41
 9574 3c42 BAA5      		ldd r27,Y+42
 9575 3c44 8E15      		cp r24,r14
 9576 3c46 9F05      		cpc r25,r15
 9577 3c48 A007      		cpc r26,r16
 9578 3c4a B107      		cpc r27,r17
 9579 3c4c 00F4      		brsh .L716
 9580 3c4e CE01      		movw r24,r28
 9581 3c50 B801      		movw r22,r16
 9582 3c52 A701      		movw r20,r14
 9583               	.LVL649:
 9584 3c54 0E94 0000 		call fat_resize_file
 9585               	.LVL650:
 9586 3c58 8823      		tst r24
 9587 3c5a 01F0      		breq .L711
 9588               	.LVL651:
 9589               	.L716:
 9590               	.LM451:
 9591 3c5c A801      		movw r20,r16
 9592 3c5e 9701      		movw r18,r14
 9593 3c60 EBAA      		std Y+51,r14
 9594 3c62 3CAB      		std Y+52,r19
 9595               	.LVL652:
 9596 3c64 4DAB      		std Y+53,r20
 9597 3c66 5EAB      		std Y+54,r21
 9598 3c68 1FAA      		std Y+55,__zero_reg__
 9599 3c6a 18AE      		std Y+56,__zero_reg__
 9600 3c6c 19AE      		std Y+57,__zero_reg__
 9601 3c6e 1AAE      		std Y+58,__zero_reg__
 9602               	.LM452:
 9603 3c70 1BAE      		std Y+59,__zero_reg__
 9604 3c72 1CAE      		std Y+60,__zero_reg__
 9605 3c74 1DAE      		std Y+61,__zero_reg__
 9606 3c76 1EAE      		std Y+62,__zero_reg__
 9607               	.LM453:
 9608 3c78 F601      		movw r30,r12
 9609 3c7a E082      		st Z,r14
 9610 3c7c F182      		std Z+1,r15
 9611 3c7e 0283      		std Z+2,r16
 9612 3c80 1383      		std Z+3,r17
 9613 3c82 81E0      		ldi r24,lo8(1)
 9614 3c84 00C0      		rjmp .L717
 9615               	.LVL653:
 9616               	.L711:
 9617               	.LM454:
 9618 3c86 80E0      		ldi r24,lo8(0)
 9619               	.LVL654:
 9620               	.L717:
 9621               	/* epilogue start */
 9622               	.LM455:
 9623 3c88 DF91      		pop r29
 9624 3c8a CF91      		pop r28
 9625               	.LVL655:
 9626 3c8c 1F91      		pop r17
 9627 3c8e 0F91      		pop r16
 9628 3c90 FF90      		pop r15
 9629 3c92 EF90      		pop r14
 9630               	.LVL656:
 9631 3c94 DF90      		pop r13
 9632 3c96 CF90      		pop r12
 9633               	.LVL657:
 9634 3c98 0895      		ret
 9635               	.LFE17:
 9637               	.global	fat_write_file
 9639               	fat_write_file:
 9640               	.LFB16:
 9641               	.LM456:
 9642               	.LVL658:
 9643 3c9a 2F92      		push r2
 9644 3c9c 3F92      		push r3
 9645 3c9e 4F92      		push r4
 9646 3ca0 5F92      		push r5
 9647 3ca2 6F92      		push r6
 9648 3ca4 7F92      		push r7
 9649 3ca6 8F92      		push r8
 9650 3ca8 9F92      		push r9
 9651 3caa AF92      		push r10
 9652 3cac BF92      		push r11
 9653 3cae CF92      		push r12
 9654 3cb0 DF92      		push r13
 9655 3cb2 EF92      		push r14
 9656 3cb4 FF92      		push r15
 9657 3cb6 0F93      		push r16
 9658 3cb8 1F93      		push r17
 9659 3cba DF93      		push r29
 9660 3cbc CF93      		push r28
 9661 3cbe CDB7      		in r28,__SP_L__
 9662 3cc0 DEB7      		in r29,__SP_H__
 9663 3cc2 6697      		sbiw r28,22
 9664 3cc4 0FB6      		in __tmp_reg__,__SREG__
 9665 3cc6 F894      		cli
 9666 3cc8 DEBF      		out __SP_H__,r29
 9667 3cca 0FBE      		out __SREG__,__tmp_reg__
 9668 3ccc CDBF      		out __SP_L__,r28
 9669               	/* prologue: function */
 9670               	/* frame size = 22 */
 9671 3cce 9E8B      		std Y+22,r25
 9672 3cd0 8D8B      		std Y+21,r24
 9673 3cd2 7E87      		std Y+14,r23
 9674 3cd4 6D87      		std Y+13,r22
 9675 3cd6 588B      		std Y+16,r21
 9676 3cd8 4F87      		std Y+15,r20
 9677               	.LM457:
 9678 3cda 0097      		sbiw r24,0
 9679 3cdc 01F4      		brne .+2
 9680 3cde 00C0      		rjmp .L722
 9681               	.LVL659:
 9682 3ce0 672B      		or r22,r23
 9683 3ce2 01F4      		brne .+2
 9684 3ce4 00C0      		rjmp .L722
 9685               	.LVL660:
 9686 3ce6 452B      		or r20,r21
 9687 3ce8 01F4      		brne .+2
 9688 3cea 00C0      		rjmp .L722
 9689               	.LVL661:
 9690               	.LM458:
 9691 3cec DC01      		movw r26,r24
 9692 3cee D396      		adiw r26,51
 9693 3cf0 8C90      		ld r8,X
 9694 3cf2 D397      		sbiw r26,51
 9695 3cf4 D496      		adiw r26,52
 9696 3cf6 9C90      		ld r9,X
 9697 3cf8 D497      		sbiw r26,52
 9698 3cfa D596      		adiw r26,53
 9699 3cfc AC90      		ld r10,X
 9700 3cfe D597      		sbiw r26,53
 9701 3d00 D696      		adiw r26,54
 9702 3d02 BC90      		ld r11,X
 9703 3d04 D697      		sbiw r26,54
 9704 3d06 D796      		adiw r26,55
 9705 3d08 CC90      		ld r12,X
 9706 3d0a D797      		sbiw r26,55
 9707 3d0c D896      		adiw r26,56
 9708 3d0e DC90      		ld r13,X
 9709 3d10 D897      		sbiw r26,56
 9710 3d12 D996      		adiw r26,57
 9711 3d14 EC90      		ld r14,X
 9712 3d16 D997      		sbiw r26,57
 9713 3d18 DA96      		adiw r26,58
 9714 3d1a FC90      		ld r15,X
 9715 3d1c FC01      		movw r30,r24
 9716               	.LVL662:
 9717 3d1e 87A1      		ldd r24,Z+39
 9718 3d20 90A5      		ldd r25,Z+40
 9719 3d22 A1A5      		ldd r26,Z+41
 9720 3d24 B2A5      		ldd r27,Z+42
 9721 3d26 9C01      		movw r18,r24
 9722 3d28 AD01      		movw r20,r26
 9723 3d2a 60E0      		ldi r22,lo8(0)
 9724 3d2c 70E0      		ldi r23,hi8(0)
 9725 3d2e 80E0      		ldi r24,hlo8(0)
 9726 3d30 90E0      		ldi r25,hhi8(0)
 9727               	.LVL663:
 9728 3d32 9F15      		cp r25,r15
 9729 3d34 00F4      		brsh .+2
 9730 3d36 00C0      		rjmp .L722
 9731 3d38 F916      		cp r15,r25
 9732 3d3a 01F4      		brne .L781
 9733 3d3c 8E15      		cp r24,r14
 9734 3d3e 00F4      		brsh .+2
 9735 3d40 00C0      		rjmp .L722
 9736 3d42 E816      		cp r14,r24
 9737 3d44 01F4      		brne .L781
 9738 3d46 7D15      		cp r23,r13
 9739 3d48 00F4      		brsh .+2
 9740 3d4a 00C0      		rjmp .L722
 9741 3d4c D716      		cp r13,r23
 9742 3d4e 01F4      		brne .L781
 9743 3d50 6C15      		cp r22,r12
 9744 3d52 00F4      		brsh .+2
 9745 3d54 00C0      		rjmp .L722
 9746 3d56 C616      		cp r12,r22
 9747 3d58 01F4      		brne .L781
 9748 3d5a 5B15      		cp r21,r11
 9749 3d5c 00F4      		brsh .+2
 9750 3d5e 00C0      		rjmp .L722
 9751 3d60 B516      		cp r11,r21
 9752 3d62 01F4      		brne .L781
 9753 3d64 4A15      		cp r20,r10
 9754               	.LVL664:
 9755 3d66 00F4      		brsh .+2
 9756 3d68 00C0      		rjmp .L722
 9757 3d6a A416      		cp r10,r20
 9758 3d6c 01F4      		brne .L781
 9759 3d6e 3915      		cp r19,r9
 9760 3d70 00F4      		brsh .+2
 9761 3d72 00C0      		rjmp .L722
 9762 3d74 9316      		cp r9,r19
 9763 3d76 01F4      		brne .L781
 9764 3d78 2815      		cp r18,r8
 9765 3d7a 00F4      		brsh .+2
 9766 3d7c 00C0      		rjmp .L722
 9767               	.LVL665:
 9768               	.L781:
 9769               	.LM459:
 9770 3d7e AD89      		ldd r26,Y+21
 9771 3d80 BE89      		ldd r27,Y+22
 9772 3d82 2D91      		ld r18,X+
 9773 3d84 3C91      		ld r19,X
 9774 3d86 1197      		sbiw r26,1
 9775 3d88 F901      		movw r30,r18
 9776 3d8a 008C      		ldd __tmp_reg__,Z+24
 9777 3d8c F18D      		ldd r31,Z+25
 9778 3d8e E02D      		mov r30,__tmp_reg__
 9779 3d90 FC87      		std Y+12,r31
 9780 3d92 EB87      		std Y+11,r30
 9781               	.LVL666:
 9782               	.LM460:
 9783 3d94 DB96      		adiw r26,59
 9784 3d96 8D91      		ld r24,X+
 9785 3d98 9D91      		ld r25,X+
 9786 3d9a 0D90      		ld __tmp_reg__,X+
 9787 3d9c BC91      		ld r27,X
 9788 3d9e A02D      		mov r26,__tmp_reg__
 9789 3da0 8F83      		std Y+7,r24
 9790 3da2 9887      		std Y+8,r25
 9791 3da4 A987      		std Y+9,r26
 9792 3da6 BA87      		std Y+10,r27
 9793               	.LVL667:
 9794               	.LM461:
 9795 3da8 0097      		sbiw r24,0
 9796 3daa A105      		cpc r26,__zero_reg__
 9797 3dac B105      		cpc r27,__zero_reg__
 9798 3dae 01F0      		breq .+2
 9799 3db0 00C0      		rjmp .L724
 9800               	.LM462:
 9801 3db2 AD89      		ldd r26,Y+21
 9802 3db4 BE89      		ldd r27,Y+22
 9803 3db6 9396      		adiw r26,35
 9804 3db8 8D91      		ld r24,X+
 9805 3dba 9D91      		ld r25,X+
 9806 3dbc 0D90      		ld __tmp_reg__,X+
 9807 3dbe BC91      		ld r27,X
 9808 3dc0 A02D      		mov r26,__tmp_reg__
 9809 3dc2 8F83      		std Y+7,r24
 9810 3dc4 9887      		std Y+8,r25
 9811 3dc6 A987      		std Y+9,r26
 9812 3dc8 BA87      		std Y+10,r27
 9813               	.LVL668:
 9814               	.LM463:
 9815 3dca 0097      		sbiw r24,0
 9816 3dcc A105      		cpc r26,__zero_reg__
 9817 3dce B105      		cpc r27,__zero_reg__
 9818 3dd0 01F4      		brne .L725
 9819               	.LM464:
 9820 3dd2 882D      		mov r24,r8
 9821 3dd4 8929      		or r24,r9
 9822 3dd6 8A29      		or r24,r10
 9823 3dd8 8B29      		or r24,r11
 9824 3dda 8C29      		or r24,r12
 9825 3ddc 8D29      		or r24,r13
 9826 3dde 8E29      		or r24,r14
 9827 3de0 8F29      		or r24,r15
 9828 3de2 01F0      		breq .+2
 9829 3de4 00C0      		rjmp .L722
 9830               	.LM465:
 9831 3de6 C901      		movw r24,r18
 9832 3de8 40E0      		ldi r20,lo8(0)
 9833 3dea 50E0      		ldi r21,hi8(0)
 9834 3dec 60E0      		ldi r22,hlo8(0)
 9835 3dee 70E0      		ldi r23,hhi8(0)
 9836 3df0 01E0      		ldi r16,lo8(1)
 9837 3df2 10E0      		ldi r17,hi8(1)
 9838 3df4 20E0      		ldi r18,hlo8(1)
 9839 3df6 30E0      		ldi r19,hhi8(1)
 9840 3df8 0E94 0000 		call fat_append_clusters
 9841 3dfc 6F83      		std Y+7,r22
 9842 3dfe 7887      		std Y+8,r23
 9843 3e00 8987      		std Y+9,r24
 9844 3e02 9A87      		std Y+10,r25
 9845               	.LVL669:
 9846 3e04 ED89      		ldd r30,Y+21
 9847 3e06 FE89      		ldd r31,Y+22
 9848 3e08 63A3      		std Z+35,r22
 9849 3e0a 74A3      		std Z+36,r23
 9850 3e0c 85A3      		std Z+37,r24
 9851 3e0e 96A3      		std Z+38,r25
 9852               	.LM466:
 9853 3e10 6115      		cp r22,__zero_reg__
 9854 3e12 7105      		cpc r23,__zero_reg__
 9855 3e14 8105      		cpc r24,__zero_reg__
 9856 3e16 9105      		cpc r25,__zero_reg__
 9857 3e18 01F4      		brne .+2
 9858 3e1a 00C0      		rjmp .L722
 9859               	.LVL670:
 9860               	.L725:
 9861               	.LM467:
 9862 3e1c AD89      		ldd r26,Y+21
 9863 3e1e BE89      		ldd r27,Y+22
 9864 3e20 D396      		adiw r26,51
 9865 3e22 6C91      		ld r22,X
 9866 3e24 D397      		sbiw r26,51
 9867 3e26 D496      		adiw r26,52
 9868 3e28 7C91      		ld r23,X
 9869 3e2a D497      		sbiw r26,52
 9870 3e2c D596      		adiw r26,53
 9871 3e2e EC91      		ld r30,X
 9872 3e30 D597      		sbiw r26,53
 9873 3e32 D696      		adiw r26,54
 9874 3e34 FC91      		ld r31,X
 9875 3e36 D697      		sbiw r26,54
 9876 3e38 D796      		adiw r26,55
 9877 3e3a 9C91      		ld r25,X
 9878 3e3c D797      		sbiw r26,55
 9879 3e3e D896      		adiw r26,56
 9880 3e40 2C91      		ld r18,X
 9881 3e42 D897      		sbiw r26,56
 9882 3e44 D996      		adiw r26,57
 9883 3e46 3C91      		ld r19,X
 9884 3e48 D997      		sbiw r26,57
 9885 3e4a DA96      		adiw r26,58
 9886 3e4c 4C91      		ld r20,X
 9887 3e4e 862F      		mov r24,r22
 9888 3e50 872B      		or r24,r23
 9889 3e52 8E2B      		or r24,r30
 9890 3e54 8F2B      		or r24,r31
 9891 3e56 892B      		or r24,r25
 9892 3e58 822B      		or r24,r18
 9893 3e5a 832B      		or r24,r19
 9894 3e5c 842B      		or r24,r20
 9895 3e5e 01F4      		brne .+2
 9896 3e60 00C0      		rjmp .L724
 9897               	.LBB99:
 9898               	.LM468:
 9899 3e62 9B01      		movw r18,r22
 9900 3e64 AF01      		movw r20,r30
 9901 3e66 C901      		movw r24,r18
 9902 3e68 DA01      		movw r26,r20
 9903 3e6a 2C01      		movw r4,r24
 9904 3e6c 3D01      		movw r6,r26
 9905               	.LVL671:
 9906               	.LM469:
 9907 3e6e 4B85      		ldd r20,Y+11
 9908 3e70 5C85      		ldd r21,Y+12
 9909 3e72 9A01      		movw r18,r20
 9910 3e74 40E0      		ldi r20,lo8(0)
 9911 3e76 50E0      		ldi r21,hi8(0)
 9912 3e78 298B      		std Y+17,r18
 9913 3e7a 3A8B      		std Y+18,r19
 9914 3e7c 4B8B      		std Y+19,r20
 9915 3e7e 5C8B      		std Y+20,r21
 9916 3e80 00C0      		rjmp .L783
 9917               	.LVL672:
 9918               	.L728:
 9919               	.LM470:
 9920 3e82 8989      		ldd r24,Y+17
 9921 3e84 9A89      		ldd r25,Y+18
 9922 3e86 AB89      		ldd r26,Y+19
 9923 3e88 BC89      		ldd r27,Y+20
 9924 3e8a 481A      		sub r4,r24
 9925 3e8c 590A      		sbc r5,r25
 9926 3e8e 6A0A      		sbc r6,r26
 9927 3e90 7B0A      		sbc r7,r27
 9928               	.LM471:
 9929 3e92 AD89      		ldd r26,Y+21
 9930 3e94 BE89      		ldd r27,Y+22
 9931 3e96 8D91      		ld r24,X+
 9932 3e98 9C91      		ld r25,X
 9933 3e9a 4F81      		ldd r20,Y+7
 9934 3e9c 5885      		ldd r21,Y+8
 9935 3e9e 6985      		ldd r22,Y+9
 9936 3ea0 7A85      		ldd r23,Y+10
 9937               	.LVL673:
 9938 3ea2 0E94 0000 		call fat_get_next_cluster
 9939               	.LVL674:
 9940               	.LM472:
 9941 3ea6 6115      		cp r22,__zero_reg__
 9942 3ea8 7105      		cpc r23,__zero_reg__
 9943 3eaa 8105      		cpc r24,__zero_reg__
 9944 3eac 9105      		cpc r25,__zero_reg__
 9945               	.LVL675:
 9946 3eae 01F0      		breq .L727
 9947 3eb0 6F83      		std Y+7,r22
 9948 3eb2 7887      		std Y+8,r23
 9949 3eb4 8987      		std Y+9,r24
 9950 3eb6 9A87      		std Y+10,r25
 9951               	.LVL676:
 9952 3eb8 00C0      		rjmp .L783
 9953               	.L727:
 9954 3eba 4114      		cp r4,__zero_reg__
 9955 3ebc 5104      		cpc r5,__zero_reg__
 9956 3ebe 6104      		cpc r6,__zero_reg__
 9957 3ec0 7104      		cpc r7,__zero_reg__
 9958 3ec2 01F0      		breq .+2
 9959 3ec4 00C0      		rjmp .L722
 9960               	.LM473:
 9961 3ec6 ED89      		ldd r30,Y+21
 9962 3ec8 FE89      		ldd r31,Y+22
 9963 3eca 8081      		ld r24,Z
 9964 3ecc 9181      		ldd r25,Z+1
 9965 3ece 4F81      		ldd r20,Y+7
 9966 3ed0 5885      		ldd r21,Y+8
 9967 3ed2 6985      		ldd r22,Y+9
 9968 3ed4 7A85      		ldd r23,Y+10
 9969 3ed6 01E0      		ldi r16,lo8(1)
 9970 3ed8 10E0      		ldi r17,hi8(1)
 9971 3eda 20E0      		ldi r18,hlo8(1)
 9972 3edc 30E0      		ldi r19,hhi8(1)
 9973 3ede 0E94 0000 		call fat_append_clusters
 9974               	.LVL677:
 9975 3ee2 AB01      		movw r20,r22
 9976 3ee4 BC01      		movw r22,r24
 9977               	.LVL678:
 9978               	.LM474:
 9979 3ee6 4115      		cp r20,__zero_reg__
 9980 3ee8 5105      		cpc r21,__zero_reg__
 9981 3eea 6105      		cpc r22,__zero_reg__
 9982 3eec 7105      		cpc r23,__zero_reg__
 9983 3eee 01F4      		brne .+2
 9984 3ef0 00C0      		rjmp .L722
 9985 3ef2 4F83      		std Y+7,r20
 9986 3ef4 5887      		std Y+8,r21
 9987 3ef6 6987      		std Y+9,r22
 9988 3ef8 7A87      		std Y+10,r23
 9989               	.LVL679:
 9990               	.L783:
 9991               	.LM475:
 9992 3efa 2989      		ldd r18,Y+17
 9993 3efc 3A89      		ldd r19,Y+18
 9994 3efe 4B89      		ldd r20,Y+19
 9995 3f00 5C89      		ldd r21,Y+20
 9996 3f02 4216      		cp r4,r18
 9997 3f04 5306      		cpc r5,r19
 9998 3f06 6406      		cpc r6,r20
 9999 3f08 7506      		cpc r7,r21
 10000 3f0a 00F0      		brlo .+2
 10001 3f0c 00C0      		rjmp .L728
 10002               	.LVL680:
 10003               	.L724:
 10004               	.LBE99:
 10005               	.LM476:
 10006 3f0e 4B85      		ldd r20,Y+11
 10007 3f10 5C85      		ldd r21,Y+12
 10008               	.LVL681:
 10009 3f12 4150      		subi r20,lo8(-(-1))
 10010 3f14 5040      		sbci r21,hi8(-(-1))
 10011 3f16 5C87      		std Y+12,r21
 10012 3f18 4B87      		std Y+11,r20
 10013               	.LVL682:
 10014 3f1a 4821      		and r20,r8
 10015 3f1c 5921      		and r21,r9
 10016 3f1e 5C83      		std Y+4,r21
 10017 3f20 4B83      		std Y+3,r20
 10018               	.LVL683:
 10019 3f22 8B85      		ldd r24,Y+11
 10020 3f24 9C85      		ldd r25,Y+12
 10021 3f26 0196      		adiw r24,1
 10022 3f28 9C87      		std Y+12,r25
 10023 3f2a 8B87      		std Y+11,r24
 10024               	.LVL684:
 10025 3f2c AF85      		ldd r26,Y+15
 10026 3f2e B889      		ldd r27,Y+16
 10027 3f30 BE83      		std Y+6,r27
 10028 3f32 AD83      		std Y+5,r26
 10029               	.LVL685:
 10030               	.L776:
 10031               	.LBB100:
 10032               	.LM477:
 10033 3f34 ED89      		ldd r30,Y+21
 10034 3f36 FE89      		ldd r31,Y+22
 10035 3f38 0190      		ld __tmp_reg__,Z+
 10036 3f3a F081      		ld r31,Z
 10037 3f3c E02D      		mov r30,__tmp_reg__
 10038 3f3e FA83      		std Y+2,r31
 10039 3f40 E983      		std Y+1,r30
 10040               	.LBB102:
 10041               	.LBB103:
 10042               	.LM478:
 10043 3f42 3097      		sbiw r30,0
 10044 3f44 01F4      		brne .+2
 10045 3f46 00C0      		rjmp .L729
 10046 3f48 2F81      		ldd r18,Y+7
 10047 3f4a 3885      		ldd r19,Y+8
 10048 3f4c 4985      		ldd r20,Y+9
 10049 3f4e 5A85      		ldd r21,Y+10
 10050 3f50 2230      		cpi r18,lo8(2)
 10051 3f52 3105      		cpc r19,__zero_reg__
 10052 3f54 4105      		cpc r20,__zero_reg__
 10053 3f56 5105      		cpc r21,__zero_reg__
 10054 3f58 00F4      		brsh .+2
 10055 3f5a 00C0      		rjmp .L729
 10056               	.LM479:
 10057 3f5c 2250      		subi r18,lo8(-(-2))
 10058 3f5e 3040      		sbci r19,hi8(-(-2))
 10059 3f60 4040      		sbci r20,hlo8(-(-2))
 10060 3f62 5040      		sbci r21,hhi8(-(-2))
 10061 3f64 5901      		movw r10,r18
 10062 3f66 6A01      		movw r12,r20
 10063 3f68 2E5F      		subi r18,lo8(-(2))
 10064 3f6a 3F4F      		sbci r19,hi8(-(2))
 10065 3f6c 4F4F      		sbci r20,hlo8(-(2))
 10066 3f6e 5F4F      		sbci r21,hhi8(-(2))
 10067 3f70 2F83      		std Y+7,r18
 10068 3f72 3887      		std Y+8,r19
 10069 3f74 4987      		std Y+9,r20
 10070 3f76 5A87      		std Y+10,r21
 10071               	.LVL686:
 10072 3f78 208C      		ldd r2,Z+24
 10073 3f7a 318C      		ldd r3,Z+25
 10074 3f7c 9501      		movw r18,r10
 10075 3f7e A601      		movw r20,r12
 10076               	.LVL687:
 10077 3f80 60E0      		ldi r22,lo8(0)
 10078               	.LVL688:
 10079 3f82 70E0      		ldi r23,lo8(0)
 10080               	.LVL689:
 10081 3f84 80E0      		ldi r24,lo8(0)
 10082 3f86 90E0      		ldi r25,lo8(0)
 10083               	.LVL690:
 10084 3f88 5101      		movw r10,r2
 10085 3f8a CC24      		clr r12
 10086 3f8c DD24      		clr r13
 10087 3f8e EE24      		clr r14
 10088 3f90 FF24      		clr r15
 10089 3f92 00E0      		ldi r16,lo8(0)
 10090 3f94 10E0      		ldi r17,lo8(0)
 10091 3f96 0E94 0000 		call __muldi3
 10092               	.LVL691:
 10093 3f9a E981      		ldd r30,Y+1
 10094 3f9c FA81      		ldd r31,Y+2
 10095 3f9e B28D      		ldd r27,Z+26
 10096 3fa0 F38C      		ldd r15,Z+27
 10097 3fa2 A48D      		ldd r26,Z+28
 10098 3fa4 058D      		ldd r16,Z+29
 10099 3fa6 D68C      		ldd r13,Z+30
 10100 3fa8 C78C      		ldd r12,Z+31
 10101 3faa B0A0      		ldd r11,Z+32
 10102 3fac 11A1      		ldd r17,Z+33
 10103 3fae B20F      		add r27,r18
 10104 3fb0 F1E0      		ldi r31,lo8(1)
 10105 3fb2 B217      		cp r27,r18
 10106 3fb4 00F0      		brlo .L730
 10107 3fb6 F0E0      		ldi r31,lo8(0)
 10108               	.L730:
 10109 3fb8 232F      		mov r18,r19
 10110 3fba 2F0D      		add r18,r15
 10111 3fbc E1E0      		ldi r30,lo8(1)
 10112 3fbe 2317      		cp r18,r19
 10113 3fc0 00F0      		brlo .L731
 10114 3fc2 E0E0      		ldi r30,lo8(0)
 10115               	.L731:
 10116 3fc4 EF2E      		mov r14,r31
 10117 3fc6 E20E      		add r14,r18
 10118 3fc8 31E0      		ldi r19,lo8(1)
 10119 3fca E216      		cp r14,r18
 10120 3fcc 00F0      		brlo .L732
 10121 3fce 30E0      		ldi r19,lo8(0)
 10122               	.L732:
 10123 3fd0 E32B      		or r30,r19
 10124 3fd2 242F      		mov r18,r20
 10125 3fd4 2A0F      		add r18,r26
 10126 3fd6 F1E0      		ldi r31,lo8(1)
 10127 3fd8 2417      		cp r18,r20
 10128 3fda 00F0      		brlo .L733
 10129 3fdc F0E0      		ldi r31,lo8(0)
 10130               	.L733:
 10131 3fde FE2E      		mov r15,r30
 10132 3fe0 F20E      		add r15,r18
 10133 3fe2 31E0      		ldi r19,lo8(1)
 10134 3fe4 F216      		cp r15,r18
 10135 3fe6 00F0      		brlo .L734
 10136 3fe8 30E0      		ldi r19,lo8(0)
 10137               	.L734:
 10138 3fea F32B      		or r31,r19
 10139 3fec 252F      		mov r18,r21
 10140 3fee 200F      		add r18,r16
 10141 3ff0 41E0      		ldi r20,lo8(1)
 10142 3ff2 2517      		cp r18,r21
 10143 3ff4 00F0      		brlo .L735
 10144 3ff6 40E0      		ldi r20,lo8(0)
 10145               	.L735:
 10146 3ff8 F20F      		add r31,r18
 10147 3ffa 31E0      		ldi r19,lo8(1)
 10148 3ffc F217      		cp r31,r18
 10149 3ffe 00F0      		brlo .L736
 10150 4000 30E0      		ldi r19,lo8(0)
 10151               	.L736:
 10152 4002 432B      		or r20,r19
 10153 4004 262F      		mov r18,r22
 10154 4006 2D0D      		add r18,r13
 10155 4008 51E0      		ldi r21,lo8(1)
 10156 400a 2617      		cp r18,r22
 10157 400c 00F0      		brlo .L737
 10158 400e 50E0      		ldi r21,lo8(0)
 10159               	.L737:
 10160 4010 E42F      		mov r30,r20
 10161 4012 E20F      		add r30,r18
 10162 4014 31E0      		ldi r19,lo8(1)
 10163 4016 E217      		cp r30,r18
 10164 4018 00F0      		brlo .L738
 10165 401a 30E0      		ldi r19,lo8(0)
 10166               	.L738:
 10167 401c 532B      		or r21,r19
 10168 401e 272F      		mov r18,r23
 10169 4020 2C0D      		add r18,r12
 10170 4022 41E0      		ldi r20,lo8(1)
 10171 4024 2717      		cp r18,r23
 10172 4026 00F0      		brlo .L739
 10173 4028 40E0      		ldi r20,lo8(0)
 10174               	.L739:
 10175 402a 520F      		add r21,r18
 10176 402c 31E0      		ldi r19,lo8(1)
 10177 402e 5217      		cp r21,r18
 10178 4030 00F0      		brlo .L740
 10179 4032 30E0      		ldi r19,lo8(0)
 10180               	.L740:
 10181 4034 432B      		or r20,r19
 10182 4036 282F      		mov r18,r24
 10183 4038 2B0D      		add r18,r11
 10184 403a 31E0      		ldi r19,lo8(1)
 10185 403c 2817      		cp r18,r24
 10186 403e 00F0      		brlo .L741
 10187 4040 30E0      		ldi r19,lo8(0)
 10188               	.L741:
 10189 4042 420F      		add r20,r18
 10190 4044 81E0      		ldi r24,lo8(1)
 10191 4046 4217      		cp r20,r18
 10192 4048 00F0      		brlo .L742
 10193 404a 80E0      		ldi r24,lo8(0)
 10194               	.L742:
 10195 404c A32F      		mov r26,r19
 10196 404e A82B      		or r26,r24
 10197 4050 190F      		add r17,r25
 10198 4052 2B2F      		mov r18,r27
 10199 4054 9E2D      		mov r25,r14
 10200 4056 6F2D      		mov r22,r15
 10201 4058 7F2F      		mov r23,r31
 10202 405a 4E2E      		mov r4,r30
 10203               	.LVL692:
 10204 405c 252E      		mov r2,r21
 10205 405e B42F      		mov r27,r20
 10206 4060 A10F      		add r26,r17
 10207 4062 00C0      		rjmp .L743
 10208               	.LVL693:
 10209               	.L729:
 10210 4064 20E0      		ldi r18,lo8(0)
 10211 4066 90E0      		ldi r25,lo8(0)
 10212               	.LVL694:
 10213 4068 60E0      		ldi r22,lo8(0)
 10214               	.LVL695:
 10215 406a 70E0      		ldi r23,lo8(0)
 10216               	.LVL696:
 10217 406c 4424      		clr r4
 10218               	.LVL697:
 10219 406e 2224      		clr r2
 10220 4070 B0E0      		ldi r27,lo8(0)
 10221 4072 A0E0      		ldi r26,lo8(0)
 10222               	.L743:
 10223               	.LBE103:
 10224               	.LBE102:
 10225               	.LM480:
 10226 4074 8B84      		ldd r8,Y+11
 10227 4076 9C84      		ldd r9,Y+12
 10228               	.LVL698:
 10229 4078 4B81      		ldd r20,Y+3
 10230 407a 5C81      		ldd r21,Y+4
 10231               	.LVL699:
 10232 407c 841A      		sub r8,r20
 10233 407e 950A      		sbc r9,r21
 10234 4080 ED81      		ldd r30,Y+5
 10235 4082 FE81      		ldd r31,Y+6
 10236 4084 E815      		cp r30,r8
 10237 4086 F905      		cpc r31,r9
 10238 4088 00F4      		brsh .L744
 10239 408a 4F01      		movw r8,r30
 10240               	.L744:
 10241               	.LM481:
 10242 408c E981      		ldd r30,Y+1
 10243 408e FA81      		ldd r31,Y+2
 10244 4090 6080      		ld r6,Z
 10245 4092 7180      		ldd r7,Z+1
 10246 4094 4B81      		ldd r20,Y+3
 10247 4096 5C81      		ldd r21,Y+4
 10248 4098 5A01      		movw r10,r20
 10249               	.LVL700:
 10250 409a CC24      		clr r12
 10251 409c DD24      		clr r13
 10252               	.LVL701:
 10253 409e EE24      		clr r14
 10254 40a0 FF24      		clr r15
 10255 40a2 8701      		movw r16,r14
 10256               	.LVL702:
 10257 40a4 522E      		mov r5,r18
 10258 40a6 540E      		add r5,r20
 10259 40a8 31E0      		ldi r19,lo8(1)
 10260               	.LVL703:
 10261 40aa 5216      		cp r5,r18
 10262 40ac 00F0      		brlo .L745
 10263               	.LVL704:
 10264 40ae 30E0      		ldi r19,lo8(0)
 10265               	.L745:
 10266 40b0 892F      		mov r24,r25
 10267 40b2 8B0D      		add r24,r11
 10268               	.LVL705:
 10269 40b4 41E0      		ldi r20,lo8(1)
 10270               	.LVL706:
 10271 40b6 8917      		cp r24,r25
 10272 40b8 00F0      		brlo .L746
 10273 40ba 40E0      		ldi r20,lo8(0)
 10274               	.L746:
 10275 40bc 380F      		add r19,r24
 10276 40be 91E0      		ldi r25,lo8(1)
 10277 40c0 3817      		cp r19,r24
 10278 40c2 00F0      		brlo .L747
 10279 40c4 90E0      		ldi r25,lo8(0)
 10280               	.L747:
 10281 40c6 492B      		or r20,r25
 10282 40c8 862F      		mov r24,r22
 10283 40ca 8C0D      		add r24,r12
 10284 40cc 51E0      		ldi r21,lo8(1)
 10285               	.LVL707:
 10286 40ce 8617      		cp r24,r22
 10287 40d0 00F0      		brlo .L748
 10288 40d2 50E0      		ldi r21,lo8(0)
 10289               	.L748:
 10290 40d4 480F      		add r20,r24
 10291 40d6 91E0      		ldi r25,lo8(1)
 10292 40d8 4817      		cp r20,r24
 10293 40da 00F0      		brlo .L749
 10294 40dc 90E0      		ldi r25,lo8(0)
 10295               	.L749:
 10296 40de 592B      		or r21,r25
 10297 40e0 872F      		mov r24,r23
 10298 40e2 8D0D      		add r24,r13
 10299               	.LVL708:
 10300 40e4 61E0      		ldi r22,lo8(1)
 10301 40e6 8717      		cp r24,r23
 10302 40e8 00F0      		brlo .L750
 10303 40ea 60E0      		ldi r22,lo8(0)
 10304               	.L750:
 10305 40ec 580F      		add r21,r24
 10306 40ee 91E0      		ldi r25,lo8(1)
 10307 40f0 5817      		cp r21,r24
 10308 40f2 00F0      		brlo .L751
 10309 40f4 90E0      		ldi r25,lo8(0)
 10310               	.L751:
 10311 40f6 692B      		or r22,r25
 10312 40f8 842D      		mov r24,r4
 10313 40fa 8E0D      		add r24,r14
 10314 40fc 71E0      		ldi r23,lo8(1)
 10315 40fe 8415      		cp r24,r4
 10316 4100 00F0      		brlo .L752
 10317 4102 70E0      		ldi r23,lo8(0)
 10318               	.L752:
 10319 4104 680F      		add r22,r24
 10320 4106 91E0      		ldi r25,lo8(1)
 10321 4108 6817      		cp r22,r24
 10322 410a 00F0      		brlo .L753
 10323 410c 90E0      		ldi r25,lo8(0)
 10324               	.L753:
 10325 410e 792B      		or r23,r25
 10326 4110 922D      		mov r25,r2
 10327 4112 9F0D      		add r25,r15
 10328               	.LVL709:
 10329 4114 81E0      		ldi r24,lo8(1)
 10330 4116 9215      		cp r25,r2
 10331 4118 00F0      		brlo .L754
 10332 411a 80E0      		ldi r24,lo8(0)
 10333               	.L754:
 10334 411c 790F      		add r23,r25
 10335 411e E1E0      		ldi r30,lo8(1)
 10336 4120 7917      		cp r23,r25
 10337 4122 00F0      		brlo .L755
 10338 4124 E0E0      		ldi r30,lo8(0)
 10339               	.L755:
 10340 4126 8E2B      		or r24,r30
 10341 4128 EB2F      		mov r30,r27
 10342 412a E00F      		add r30,r16
 10343               	.LVL710:
 10344 412c 91E0      		ldi r25,lo8(1)
 10345 412e EB17      		cp r30,r27
 10346 4130 00F0      		brlo .L756
 10347 4132 90E0      		ldi r25,lo8(0)
 10348               	.L756:
 10349 4134 8E0F      		add r24,r30
 10350 4136 F1E0      		ldi r31,lo8(1)
 10351 4138 8E17      		cp r24,r30
 10352 413a 00F0      		brlo .L757
 10353 413c F0E0      		ldi r31,lo8(0)
 10354               	.L757:
 10355 413e 9F2B      		or r25,r31
 10356 4140 A10F      		add r26,r17
 10357               	.LVL711:
 10358 4142 F301      		movw r30,r6
 10359 4144 C480      		ldd r12,Z+4
 10360 4146 D580      		ldd r13,Z+5
 10361               	.LVL712:
 10362 4148 252D      		mov r18,r5
 10363 414a 9A0F      		add r25,r26
 10364 414c 0D85      		ldd r16,Y+13
 10365 414e 1E85      		ldd r17,Y+14
 10366               	.LVL713:
 10367 4150 7401      		movw r14,r8
 10368               	.LVL714:
 10369 4152 F601      		movw r30,r12
 10370 4154 0995      		icall
 10371 4156 8823      		tst r24
 10372 4158 01F4      		brne .+2
 10373 415a 00C0      		rjmp .L758
 10374               	.LM482:
 10375 415c 2D81      		ldd r18,Y+5
 10376 415e 3E81      		ldd r19,Y+6
 10377 4160 2819      		sub r18,r8
 10378 4162 3909      		sbc r19,r9
 10379 4164 3E83      		std Y+6,r19
 10380 4166 2D83      		std Y+5,r18
 10381               	.LVL715:
 10382               	.LM483:
 10383 4168 9401      		movw r18,r8
 10384 416a 40E0      		ldi r20,lo8(0)
 10385 416c 50E0      		ldi r21,hi8(0)
 10386               	.LVL716:
 10387 416e 60E0      		ldi r22,lo8(0)
 10388 4170 70E0      		ldi r23,hi8(0)
 10389 4172 80E0      		ldi r24,hlo8(0)
 10390 4174 90E0      		ldi r25,hhi8(0)
 10391               	.LVL717:
 10392 4176 AD89      		ldd r26,Y+21
 10393 4178 BE89      		ldd r27,Y+22
 10394 417a D396      		adiw r26,51
 10395 417c 1C91      		ld r17,X
 10396 417e D397      		sbiw r26,51
 10397               	.LVL718:
 10398 4180 D496      		adiw r26,52
 10399 4182 DC90      		ld r13,X
 10400 4184 D497      		sbiw r26,52
 10401               	.LVL719:
 10402 4186 D596      		adiw r26,53
 10403 4188 BC91      		ld r27,X
 10404 418a ED89      		ldd r30,Y+21
 10405 418c FE89      		ldd r31,Y+22
 10406 418e 06A9      		ldd r16,Z+54
 10407 4190 E7A8      		ldd r14,Z+55
 10408 4192 A0AC      		ldd r10,Z+56
 10409               	.LVL720:
 10410 4194 71AC      		ldd r7,Z+57
 10411 4196 F2AC      		ldd r15,Z+58
 10412               	.LVL721:
 10413 4198 180D      		add r17,r8
 10414 419a F1E0      		ldi r31,lo8(1)
 10415 419c 1815      		cp r17,r8
 10416 419e 00F0      		brlo .L759
 10417 41a0 F0E0      		ldi r31,lo8(0)
 10418               	.L759:
 10419 41a2 ED2D      		mov r30,r13
 10420 41a4 E30F      		add r30,r19
 10421               	.LVL722:
 10422 41a6 A1E0      		ldi r26,lo8(1)
 10423 41a8 E317      		cp r30,r19
 10424 41aa 00F0      		brlo .L760
 10425 41ac A0E0      		ldi r26,lo8(0)
 10426               	.L760:
 10427 41ae BF2E      		mov r11,r31
 10428               	.LVL723:
 10429 41b0 BE0E      		add r11,r30
 10430 41b2 F1E0      		ldi r31,lo8(1)
 10431 41b4 BE16      		cp r11,r30
 10432 41b6 00F0      		brlo .L761
 10433 41b8 F0E0      		ldi r31,lo8(0)
 10434               	.L761:
 10435 41ba AF2B      		or r26,r31
 10436 41bc E42F      		mov r30,r20
 10437               	.LVL724:
 10438 41be EB0F      		add r30,r27
 10439 41c0 B1E0      		ldi r27,lo8(1)
 10440 41c2 E417      		cp r30,r20
 10441               	.LVL725:
 10442 41c4 00F0      		brlo .L762
 10443 41c6 B0E0      		ldi r27,lo8(0)
 10444               	.L762:
 10445 41c8 CA2E      		mov r12,r26
 10446 41ca CE0E      		add r12,r30
 10447 41cc F1E0      		ldi r31,lo8(1)
 10448 41ce CE16      		cp r12,r30
 10449 41d0 00F0      		brlo .L763
 10450 41d2 F0E0      		ldi r31,lo8(0)
 10451               	.L763:
 10452 41d4 BF2B      		or r27,r31
 10453 41d6 E52F      		mov r30,r21
 10454 41d8 E00F      		add r30,r16
 10455 41da A1E0      		ldi r26,lo8(1)
 10456 41dc E517      		cp r30,r21
 10457               	.LVL726:
 10458 41de 00F0      		brlo .L764
 10459 41e0 A0E0      		ldi r26,lo8(0)
 10460               	.L764:
 10461 41e2 DB2E      		mov r13,r27
 10462 41e4 DE0E      		add r13,r30
 10463 41e6 F1E0      		ldi r31,lo8(1)
 10464 41e8 DE16      		cp r13,r30
 10465 41ea 00F0      		brlo .L765
 10466 41ec F0E0      		ldi r31,lo8(0)
 10467               	.L765:
 10468 41ee AF2B      		or r26,r31
 10469 41f0 E62F      		mov r30,r22
 10470               	.LVL727:
 10471 41f2 EE0D      		add r30,r14
 10472 41f4 B1E0      		ldi r27,lo8(1)
 10473 41f6 E617      		cp r30,r22
 10474               	.LVL728:
 10475 41f8 00F0      		brlo .L766
 10476 41fa B0E0      		ldi r27,lo8(0)
 10477               	.L766:
 10478 41fc EA2E      		mov r14,r26
 10479 41fe EE0E      		add r14,r30
 10480 4200 F1E0      		ldi r31,lo8(1)
 10481 4202 EE16      		cp r14,r30
 10482 4204 00F0      		brlo .L767
 10483 4206 F0E0      		ldi r31,lo8(0)
 10484               	.L767:
 10485 4208 BF2B      		or r27,r31
 10486 420a E72F      		mov r30,r23
 10487 420c EA0D      		add r30,r10
 10488 420e A1E0      		ldi r26,lo8(1)
 10489 4210 E717      		cp r30,r23
 10490               	.LVL729:
 10491 4212 00F0      		brlo .L768
 10492 4214 A0E0      		ldi r26,lo8(0)
 10493               	.L768:
 10494 4216 0B2F      		mov r16,r27
 10495 4218 0E0F      		add r16,r30
 10496 421a F1E0      		ldi r31,lo8(1)
 10497 421c 0E17      		cp r16,r30
 10498 421e 00F0      		brlo .L769
 10499 4220 F0E0      		ldi r31,lo8(0)
 10500               	.L769:
 10501 4222 AF2B      		or r26,r31
 10502 4224 E82F      		mov r30,r24
 10503 4226 E70D      		add r30,r7
 10504 4228 F1E0      		ldi r31,lo8(1)
 10505 422a E817      		cp r30,r24
 10506               	.LVL730:
 10507 422c 00F0      		brlo .L770
 10508 422e F0E0      		ldi r31,lo8(0)
 10509               	.L770:
 10510 4230 AA2E      		mov r10,r26
 10511 4232 AE0E      		add r10,r30
 10512 4234 A1E0      		ldi r26,lo8(1)
 10513 4236 AE16      		cp r10,r30
 10514 4238 00F0      		brlo .L771
 10515 423a A0E0      		ldi r26,lo8(0)
 10516               	.L771:
 10517 423c FA2B      		or r31,r26
 10518 423e F90E      		add r15,r25
 10519               	.LVL731:
 10520 4240 FF0D      		add r31,r15
 10521 4242 AD89      		ldd r26,Y+21
 10522 4244 BE89      		ldd r27,Y+22
 10523 4246 D396      		adiw r26,51
 10524 4248 1C93      		st X,r17
 10525 424a D397      		sbiw r26,51
 10526 424c D496      		adiw r26,52
 10527 424e BC92      		st X,r11
 10528 4250 D497      		sbiw r26,52
 10529 4252 D596      		adiw r26,53
 10530 4254 CC92      		st X,r12
 10531 4256 D597      		sbiw r26,53
 10532 4258 D696      		adiw r26,54
 10533 425a DC92      		st X,r13
 10534 425c D697      		sbiw r26,54
 10535 425e D796      		adiw r26,55
 10536 4260 EC92      		st X,r14
 10537 4262 D797      		sbiw r26,55
 10538 4264 D896      		adiw r26,56
 10539 4266 0C93      		st X,r16
 10540 4268 D897      		sbiw r26,56
 10541 426a D996      		adiw r26,57
 10542 426c AC92      		st X,r10
 10543 426e D997      		sbiw r26,57
 10544 4270 DA96      		adiw r26,58
 10545 4272 FC93      		st X,r31
 10546 4274 DA97      		sbiw r26,58
 10547               	.LM484:
 10548 4276 8B81      		ldd r24,Y+3
 10549 4278 9C81      		ldd r25,Y+4
 10550               	.LVL732:
 10551 427a 880D      		add r24,r8
 10552 427c 991D      		adc r25,r9
 10553 427e EB85      		ldd r30,Y+11
 10554 4280 FC85      		ldd r31,Y+12
 10555 4282 8E17      		cp r24,r30
 10556 4284 9F07      		cpc r25,r31
 10557 4286 00F0      		brlo .L772
 10558               	.LBB101:
 10559               	.LM485:
 10560 4288 8D91      		ld r24,X+
 10561 428a 9C91      		ld r25,X
 10562 428c 4F81      		ldd r20,Y+7
 10563 428e 5885      		ldd r21,Y+8
 10564 4290 6985      		ldd r22,Y+9
 10565 4292 7A85      		ldd r23,Y+10
 10566               	.LVL733:
 10567 4294 0E94 0000 		call fat_get_next_cluster
 10568               	.LVL734:
 10569               	.LM486:
 10570 4298 6115      		cp r22,__zero_reg__
 10571 429a 7105      		cpc r23,__zero_reg__
 10572 429c 8105      		cpc r24,__zero_reg__
 10573 429e 9105      		cpc r25,__zero_reg__
 10574               	.LVL735:
 10575 42a0 01F0      		breq .L773
 10576 42a2 6F83      		std Y+7,r22
 10577 42a4 7887      		std Y+8,r23
 10578 42a6 8987      		std Y+9,r24
 10579 42a8 9A87      		std Y+10,r25
 10580               	.LVL736:
 10581 42aa 00C0      		rjmp .L784
 10582               	.L773:
 10583 42ac 2D81      		ldd r18,Y+5
 10584 42ae 3E81      		ldd r19,Y+6
 10585 42b0 232B      		or r18,r19
 10586 42b2 01F0      		breq .L774
 10587               	.LM487:
 10588 42b4 AD89      		ldd r26,Y+21
 10589 42b6 BE89      		ldd r27,Y+22
 10590 42b8 8D91      		ld r24,X+
 10591 42ba 9C91      		ld r25,X
 10592 42bc 4F81      		ldd r20,Y+7
 10593 42be 5885      		ldd r21,Y+8
 10594 42c0 6985      		ldd r22,Y+9
 10595 42c2 7A85      		ldd r23,Y+10
 10596 42c4 01E0      		ldi r16,lo8(1)
 10597 42c6 10E0      		ldi r17,hi8(1)
 10598 42c8 20E0      		ldi r18,hlo8(1)
 10599 42ca 30E0      		ldi r19,hhi8(1)
 10600 42cc 0E94 0000 		call fat_append_clusters
 10601               	.LVL737:
 10602 42d0 AB01      		movw r20,r22
 10603 42d2 BC01      		movw r22,r24
 10604               	.LVL738:
 10605               	.LM488:
 10606 42d4 4115      		cp r20,__zero_reg__
 10607 42d6 5105      		cpc r21,__zero_reg__
 10608 42d8 6105      		cpc r22,__zero_reg__
 10609 42da 7105      		cpc r23,__zero_reg__
 10610 42dc 01F4      		brne .L775
 10611               	.LVL739:
 10612               	.L774:
 10613               	.LM489:
 10614 42de ED89      		ldd r30,Y+21
 10615 42e0 FE89      		ldd r31,Y+22
 10616 42e2 13AE      		std Z+59,__zero_reg__
 10617 42e4 14AE      		std Z+60,__zero_reg__
 10618 42e6 15AE      		std Z+61,__zero_reg__
 10619 42e8 16AE      		std Z+62,__zero_reg__
 10620 42ea 00C0      		rjmp .L758
 10621               	.LVL740:
 10622               	.L775:
 10623               	.LM490:
 10624 42ec 4F83      		std Y+7,r20
 10625 42ee 5887      		std Y+8,r21
 10626 42f0 6987      		std Y+9,r22
 10627 42f2 7A87      		std Y+10,r23
 10628               	.LVL741:
 10629               	.L784:
 10630 42f4 1C82      		std Y+4,__zero_reg__
 10631 42f6 1B82      		std Y+3,__zero_reg__
 10632               	.LVL742:
 10633               	.L772:
 10634               	.LBE101:
 10635               	.LM491:
 10636 42f8 2F81      		ldd r18,Y+7
 10637 42fa 3885      		ldd r19,Y+8
 10638 42fc 4985      		ldd r20,Y+9
 10639 42fe 5A85      		ldd r21,Y+10
 10640 4300 AD89      		ldd r26,Y+21
 10641 4302 BE89      		ldd r27,Y+22
 10642 4304 DB96      		adiw r26,59
 10643 4306 2D93      		st X+,r18
 10644 4308 3D93      		st X+,r19
 10645 430a 4D93      		st X+,r20
 10646 430c 5C93      		st X,r21
 10647 430e DE97      		sbiw r26,59+3
 10648               	.LBE100:
 10649               	.LM492:
 10650 4310 ED81      		ldd r30,Y+5
 10651 4312 FE81      		ldd r31,Y+6
 10652 4314 EF2B      		or r30,r31
 10653 4316 01F0      		breq .L758
 10654               	.LBB104:
 10655               	.LM493:
 10656 4318 2D85      		ldd r18,Y+13
 10657 431a 3E85      		ldd r19,Y+14
 10658 431c 280D      		add r18,r8
 10659 431e 391D      		adc r19,r9
 10660 4320 3E87      		std Y+14,r19
 10661 4322 2D87      		std Y+13,r18
 10662               	.LVL743:
 10663 4324 00C0      		rjmp .L776
 10664               	.LVL744:
 10665               	.L758:
 10666               	.LBE104:
 10667               	.LM494:
 10668 4326 AD89      		ldd r26,Y+21
 10669 4328 BE89      		ldd r27,Y+22
 10670 432a D396      		adiw r26,51
 10671 432c 7C91      		ld r23,X
 10672 432e D397      		sbiw r26,51
 10673               	.LVL745:
 10674 4330 D496      		adiw r26,52
 10675 4332 4C91      		ld r20,X
 10676 4334 D497      		sbiw r26,52
 10677               	.LVL746:
 10678 4336 D596      		adiw r26,53
 10679 4338 5C91      		ld r21,X
 10680 433a D597      		sbiw r26,53
 10681               	.LVL747:
 10682 433c D696      		adiw r26,54
 10683 433e 6C91      		ld r22,X
 10684 4340 D697      		sbiw r26,54
 10685               	.LVL748:
 10686 4342 D796      		adiw r26,55
 10687 4344 3C91      		ld r19,X
 10688 4346 D797      		sbiw r26,55
 10689               	.LVL749:
 10690 4348 D896      		adiw r26,56
 10691 434a 2C91      		ld r18,X
 10692 434c D897      		sbiw r26,56
 10693 434e D996      		adiw r26,57
 10694 4350 9C91      		ld r25,X
 10695 4352 D997      		sbiw r26,57
 10696               	.LVL750:
 10697 4354 DA96      		adiw r26,58
 10698 4356 8C91      		ld r24,X
 10699 4358 DA97      		sbiw r26,58
 10700 435a 9796      		adiw r26,39
 10701 435c 6D90      		ld r6,X+
 10702 435e 7D90      		ld r7,X+
 10703 4360 8D90      		ld r8,X+
 10704 4362 9C90      		ld r9,X
 10705 4364 9A97      		sbiw r26,39+3
 10706 4366 6401      		movw r12,r8
 10707 4368 5301      		movw r10,r6
 10708 436a EE24      		clr r14
 10709 436c FF24      		clr r15
 10710 436e 8701      		movw r16,r14
 10711 4370 1817      		cp r17,r24
 10712               	.LVL751:
 10713 4372 00F0      		brlo .L782
 10714 4374 8117      		cp r24,r17
 10715 4376 01F4      		brne .L777
 10716 4378 0917      		cp r16,r25
 10717 437a 00F0      		brlo .L782
 10718 437c 9017      		cp r25,r16
 10719 437e 01F4      		brne .L777
 10720 4380 F216      		cp r15,r18
 10721               	.LVL752:
 10722 4382 00F0      		brlo .L782
 10723 4384 2F15      		cp r18,r15
 10724 4386 01F4      		brne .L777
 10725 4388 E316      		cp r14,r19
 10726 438a 00F0      		brlo .L782
 10727 438c 3E15      		cp r19,r14
 10728 438e 01F4      		brne .L777
 10729 4390 D616      		cp r13,r22
 10730               	.LVL753:
 10731 4392 00F0      		brlo .L782
 10732 4394 6D15      		cp r22,r13
 10733 4396 01F4      		brne .L777
 10734 4398 C516      		cp r12,r21
 10735 439a 00F0      		brlo .L782
 10736 439c 5C15      		cp r21,r12
 10737 439e 01F4      		brne .L777
 10738 43a0 B416      		cp r11,r20
 10739               	.LVL754:
 10740 43a2 00F0      		brlo .L782
 10741 43a4 4B15      		cp r20,r11
 10742 43a6 01F4      		brne .L777
 10743 43a8 6716      		cp r6,r23
 10744 43aa 00F4      		brsh .L777
 10745               	.LVL755:
 10746               	.L782:
 10747               	.LBB105:
 10748               	.LM495:
 10749 43ac ED89      		ldd r30,Y+21
 10750 43ae FE89      		ldd r31,Y+22
 10751 43b0 77A3      		std Z+39,r23
 10752 43b2 40A7      		std Z+40,r20
 10753 43b4 51A7      		std Z+41,r21
 10754 43b6 62A7      		std Z+42,r22
 10755               	.LM496:
 10756 43b8 8191      		ld r24,Z+
 10757 43ba 9191      		ld r25,Z+
 10758 43bc BF01      		movw r22,r30
 10759 43be 0E94 0000 		call fat_write_dir_entry
 10760 43c2 8823      		tst r24
 10761 43c4 01F4      		brne .L777
 10762               	.LM497:
 10763 43c6 AD89      		ldd r26,Y+21
 10764 43c8 BE89      		ldd r27,Y+22
 10765 43ca D396      		adiw r26,51
 10766 43cc 0D90      		ld __tmp_reg__,X+
 10767 43ce BC91      		ld r27,X
 10768 43d0 A02D      		mov r26,__tmp_reg__
 10769 43d2 A619      		sub r26,r6
 10770 43d4 B709      		sbc r27,r7
 10771 43d6 BE83      		std Y+6,r27
 10772 43d8 AD83      		std Y+5,r26
 10773               	.LVL756:
 10774               	.LM498:
 10775 43da ED89      		ldd r30,Y+21
 10776 43dc FE89      		ldd r31,Y+22
 10777 43de A3AA      		std Z+51,r10
 10778 43e0 B4AA      		std Z+52,r11
 10779               	.LVL757:
 10780 43e2 C5AA      		std Z+53,r12
 10781 43e4 D6AA      		std Z+54,r13
 10782               	.LVL758:
 10783 43e6 17AA      		std Z+55,__zero_reg__
 10784 43e8 10AE      		std Z+56,__zero_reg__
 10785 43ea 11AE      		std Z+57,__zero_reg__
 10786 43ec 12AE      		std Z+58,__zero_reg__
 10787               	.LVL759:
 10788               	.L777:
 10789               	.LBE105:
 10790               	.LM499:
 10791 43ee 4F85      		ldd r20,Y+15
 10792 43f0 5889      		ldd r21,Y+16
 10793 43f2 2D81      		ldd r18,Y+5
 10794 43f4 3E81      		ldd r19,Y+6
 10795 43f6 421B      		sub r20,r18
 10796 43f8 530B      		sbc r21,r19
 10797 43fa 00C0      		rjmp .L779
 10798               	.LVL760:
 10799               	.L722:
 10800 43fc 4FEF      		ldi r20,lo8(-1)
 10801 43fe 5FEF      		ldi r21,hi8(-1)
 10802               	.LVL761:
 10803               	.L779:
 10804               	.LM500:
 10805 4400 CA01      		movw r24,r20
 10806               	/* epilogue start */
 10807 4402 6696      		adiw r28,22
 10808 4404 0FB6      		in __tmp_reg__,__SREG__
 10809 4406 F894      		cli
 10810 4408 DEBF      		out __SP_H__,r29
 10811 440a 0FBE      		out __SREG__,__tmp_reg__
 10812 440c CDBF      		out __SP_L__,r28
 10813 440e CF91      		pop r28
 10814 4410 DF91      		pop r29
 10815 4412 1F91      		pop r17
 10816 4414 0F91      		pop r16
 10817 4416 FF90      		pop r15
 10818               	.LVL762:
 10819 4418 EF90      		pop r14
 10820 441a DF90      		pop r13
 10821               	.LVL763:
 10822 441c CF90      		pop r12
 10823 441e BF90      		pop r11
 10824               	.LVL764:
 10825 4420 AF90      		pop r10
 10826 4422 9F90      		pop r9
 10827 4424 8F90      		pop r8
 10828               	.LVL765:
 10829 4426 7F90      		pop r7
 10830 4428 6F90      		pop r6
 10831 442a 5F90      		pop r5
 10832 442c 4F90      		pop r4
 10833               	.LVL766:
 10834 442e 3F90      		pop r3
 10835 4430 2F90      		pop r2
 10836 4432 0895      		ret
 10837               	.LFE16:
 10839               	.global	fat_open_dir
 10841               	fat_open_dir:
 10842               	.LFB19:
 10843               	.LM501:
 10844               	.LVL767:
 10845 4434 CF93      		push r28
 10846 4436 DF93      		push r29
 10847               	/* prologue: function */
 10848               	/* frame size = 0 */
 10849 4438 AC01      		movw r20,r24
 10850 443a DB01      		movw r26,r22
 10851               	.LM502:
 10852 443c 0097      		sbiw r24,0
 10853 443e 01F0      		breq .L786
 10854               	.LVL768:
 10855 4440 6115      		cp r22,__zero_reg__
 10856 4442 7105      		cpc r23,__zero_reg__
 10857 4444 01F0      		breq .L786
 10858               	.LVL769:
 10859 4446 9096      		adiw r26,32
 10860 4448 8C91      		ld r24,X
 10861 444a 9097      		sbiw r26,32
 10862               	.LVL770:
 10863 444c 84FF      		sbrs r24,4
 10864 444e 00C0      		rjmp .L786
 10865               	.LVL771:
 10866               	.LM503:
 10867 4450 8091 0000 		lds r24,fat_dir_handles
 10868 4454 9091 0000 		lds r25,(fat_dir_handles)+1
 10869 4458 892B      		or r24,r25
 10870 445a 01F4      		brne .L787
 10871 445c E0E0      		ldi r30,lo8(fat_dir_handles)
 10872 445e F0E0      		ldi r31,hi8(fat_dir_handles)
 10873               	.LVL772:
 10874 4460 00C0      		rjmp .L788
 10875               	.LVL773:
 10876               	.L787:
 10877 4462 8091 0000 		lds r24,fat_dir_handles+57
 10878 4466 9091 0000 		lds r25,(fat_dir_handles+57)+1
 10879 446a 892B      		or r24,r25
 10880 446c 01F4      		brne .L786
 10881 446e E0E0      		ldi r30,lo8(fat_dir_handles+57)
 10882 4470 F0E0      		ldi r31,hi8(fat_dir_handles+57)
 10883               	.LVL774:
 10884               	.L788:
 10885               	.LM504:
 10886 4472 9F01      		movw r18,r30
 10887 4474 2E5F      		subi r18,lo8(-(2))
 10888 4476 3F4F      		sbci r19,hi8(-(2))
 10889 4478 BD01      		movw r22,r26
 10890 447a 81E3      		ldi r24,lo8(49)
 10891               	.LVL775:
 10892               	.L789:
 10893 447c EB01      		movw r28,r22
 10894 447e 0990      		ld r0,Y+
 10895 4480 BE01      		movw r22,r28
 10896 4482 E901      		movw r28,r18
 10897 4484 0992      		st Y+,r0
 10898 4486 9E01      		movw r18,r28
 10899 4488 8150      		subi r24,lo8(-(-1))
 10900 448a 01F4      		brne .L789
 10901               	.LM505:
 10902 448c 5183      		std Z+1,r21
 10903 448e 4083      		st Z,r20
 10904               	.LM506:
 10905 4490 9196      		adiw r26,33
 10906 4492 8D91      		ld r24,X+
 10907 4494 9D91      		ld r25,X+
 10908 4496 0D90      		ld __tmp_reg__,X+
 10909 4498 BC91      		ld r27,X
 10910 449a A02D      		mov r26,__tmp_reg__
 10911 449c 83AB      		std Z+51,r24
 10912 449e 94AB      		std Z+52,r25
 10913 44a0 A5AB      		std Z+53,r26
 10914 44a2 B6AB      		std Z+54,r27
 10915               	.LM507:
 10916 44a4 10AE      		std Z+56,__zero_reg__
 10917 44a6 17AA      		std Z+55,__zero_reg__
 10918 44a8 00C0      		rjmp .L790
 10919               	.LVL776:
 10920               	.L786:
 10921               	.LM508:
 10922 44aa E0E0      		ldi r30,lo8(0)
 10923 44ac F0E0      		ldi r31,hi8(0)
 10924               	.LVL777:
 10925               	.L790:
 10926               	.LM509:
 10927 44ae CF01      		movw r24,r30
 10928               	.LVL778:
 10929               	/* epilogue start */
 10930 44b0 DF91      		pop r29
 10931 44b2 CF91      		pop r28
 10932 44b4 0895      		ret
 10933               	.LFE19:
 10935               	.global	fat_open_file
 10937               	fat_open_file:
 10938               	.LFB13:
 10939               	.LM510:
 10940               	.LVL779:
 10941 44b6 CF93      		push r28
 10942 44b8 DF93      		push r29
 10943               	/* prologue: function */
 10944               	/* frame size = 0 */
 10945 44ba 9C01      		movw r18,r24
 10946 44bc DB01      		movw r26,r22
 10947               	.LM511:
 10948 44be 0097      		sbiw r24,0
 10949 44c0 01F0      		breq .L794
 10950               	.LVL780:
 10951 44c2 6115      		cp r22,__zero_reg__
 10952 44c4 7105      		cpc r23,__zero_reg__
 10953 44c6 01F0      		breq .L794
 10954               	.LVL781:
 10955 44c8 9096      		adiw r26,32
 10956 44ca 8C91      		ld r24,X
 10957 44cc 9097      		sbiw r26,32
 10958               	.LVL782:
 10959 44ce 84FF      		sbrs r24,4
 10960 44d0 00C0      		rjmp .L795
 10961               	.LVL783:
 10962               	.L794:
 10963 44d2 20E0      		ldi r18,lo8(0)
 10964 44d4 30E0      		ldi r19,hi8(0)
 10965               	.LVL784:
 10966               	.L797:
 10967               	.LM512:
 10968 44d6 C901      		movw r24,r18
 10969               	.LVL785:
 10970               	/* epilogue start */
 10971 44d8 DF91      		pop r29
 10972 44da CF91      		pop r28
 10973 44dc 0895      		ret
 10974               	.LVL786:
 10975               	.L801:
 10976               	.LM513:
 10977 44de C0E0      		ldi r28,lo8(fat_file_handles+2)
 10978 44e0 D0E0      		ldi r29,hi8(fat_file_handles+2)
 10979 44e2 FD01      		movw r30,r26
 10980 44e4 81E3      		ldi r24,lo8(49)
 10981               	.LVL787:
 10982               	.L796:
 10983 44e6 0190      		ld r0,Z+
 10984 44e8 0992      		st Y+,r0
 10985 44ea 8150      		subi r24,lo8(-(-1))
 10986 44ec 01F4      		brne .L796
 10987               	.LM514:
 10988 44ee 3093 0000 		sts (fat_file_handles)+1,r19
 10989 44f2 2093 0000 		sts fat_file_handles,r18
 10990               	.LM515:
 10991 44f6 1092 0000 		sts fat_file_handles+51,__zero_reg__
 10992 44fa 1092 0000 		sts fat_file_handles+52,__zero_reg__
 10993 44fe 1092 0000 		sts fat_file_handles+53,__zero_reg__
 10994 4502 1092 0000 		sts fat_file_handles+54,__zero_reg__
 10995 4506 1092 0000 		sts fat_file_handles+55,__zero_reg__
 10996 450a 1092 0000 		sts fat_file_handles+56,__zero_reg__
 10997 450e 1092 0000 		sts fat_file_handles+57,__zero_reg__
 10998 4512 1092 0000 		sts fat_file_handles+58,__zero_reg__
 10999               	.LM516:
 11000 4516 9196      		adiw r26,33
 11001 4518 8D91      		ld r24,X+
 11002 451a 9D91      		ld r25,X+
 11003 451c 0D90      		ld __tmp_reg__,X+
 11004 451e BC91      		ld r27,X
 11005 4520 A02D      		mov r26,__tmp_reg__
 11006 4522 8093 0000 		sts fat_file_handles+59,r24
 11007 4526 9093 0000 		sts (fat_file_handles+59)+1,r25
 11008 452a A093 0000 		sts (fat_file_handles+59)+2,r26
 11009 452e B093 0000 		sts (fat_file_handles+59)+3,r27
 11010 4532 20E0      		ldi r18,lo8(fat_file_handles)
 11011 4534 30E0      		ldi r19,hi8(fat_file_handles)
 11012               	.LVL788:
 11013 4536 00C0      		rjmp .L797
 11014               	.LVL789:
 11015               	.L795:
 11016               	.LM517:
 11017 4538 8091 0000 		lds r24,fat_file_handles
 11018 453c 9091 0000 		lds r25,(fat_file_handles)+1
 11019 4540 892B      		or r24,r25
 11020 4542 01F4      		brne .L794
 11021 4544 00C0      		rjmp .L801
 11022               	.LFE13:
 11024               	.global	fat_get_dir_entry_of_path
 11026               	fat_get_dir_entry_of_path:
 11027               	.LFB12:
 11028               	.LM518:
 11029               	.LVL790:
 11030 4546 6F92      		push r6
 11031 4548 7F92      		push r7
 11032 454a 8F92      		push r8
 11033 454c 9F92      		push r9
 11034 454e AF92      		push r10
 11035 4550 BF92      		push r11
 11036 4552 CF92      		push r12
 11037 4554 DF92      		push r13
 11038 4556 EF92      		push r14
 11039 4558 FF92      		push r15
 11040 455a 0F93      		push r16
 11041 455c 1F93      		push r17
 11042 455e CF93      		push r28
 11043 4560 DF93      		push r29
 11044               	/* prologue: function */
 11045               	/* frame size = 0 */
 11046 4562 4C01      		movw r8,r24
 11047 4564 EB01      		movw r28,r22
 11048 4566 7A01      		movw r14,r20
 11049               	.LM519:
 11050 4568 0097      		sbiw r24,0
 11051 456a 01F4      		brne .+2
 11052 456c 00C0      		rjmp .L803
 11053               	.LVL791:
 11054 456e 6115      		cp r22,__zero_reg__
 11055 4570 7105      		cpc r23,__zero_reg__
 11056 4572 01F4      		brne .+2
 11057 4574 00C0      		rjmp .L803
 11058               	.LVL792:
 11059 4576 8881      		ld r24,Y
 11060               	.LVL793:
 11061 4578 8823      		tst r24
 11062 457a 01F4      		brne .+2
 11063 457c 00C0      		rjmp .L803
 11064               	.LVL794:
 11065 457e 4115      		cp r20,__zero_reg__
 11066 4580 5105      		cpc r21,__zero_reg__
 11067 4582 01F4      		brne .+2
 11068 4584 00C0      		rjmp .L803
 11069               	.LVL795:
 11070               	.LM520:
 11071 4586 8F32      		cpi r24,lo8(47)
 11072 4588 01F4      		brne .L804
 11073               	.LM521:
 11074 458a 2196      		adiw r28,1
 11075               	.LVL796:
 11076               	.L804:
 11077               	.LM522:
 11078 458c 81E3      		ldi r24,lo8(49)
 11079 458e F701      		movw r30,r14
 11080 4590 1192      		st Z+,__zero_reg__
 11081 4592 8A95      	        dec r24
 11082 4594 01F4      		brne .-6
 11083               	.LM523:
 11084 4596 80E1      		ldi r24,lo8(16)
 11085 4598 F701      		movw r30,r14
 11086 459a 80A3      		std Z+32,r24
 11087               	.LBB106:
 11088               	.LM524:
 11089 459c 3701      		movw r6,r14
 11090 459e 00C0      		rjmp .L817
 11091               	.LVL797:
 11092               	.L809:
 11093 45a0 E501      		movw r28,r10
 11094               	.LVL798:
 11095               	.L817:
 11096               	.LM525:
 11097 45a2 8881      		ld r24,Y
 11098 45a4 8823      		tst r24
 11099 45a6 01F4      		brne .+2
 11100 45a8 00C0      		rjmp .L806
 11101               	.LM526:
 11102 45aa C401      		movw r24,r8
 11103 45ac B701      		movw r22,r14
 11104 45ae 0E94 0000 		call fat_open_dir
 11105 45b2 6C01      		movw r12,r24
 11106               	.LM527:
 11107 45b4 0097      		sbiw r24,0
 11108 45b6 01F4      		brne .+2
 11109 45b8 00C0      		rjmp .L803
 11110               	.LVL799:
 11111               	.LM528:
 11112 45ba CE01      		movw r24,r28
 11113               	.LVL800:
 11114 45bc 6FE2      		ldi r22,lo8(47)
 11115 45be 70E0      		ldi r23,hi8(47)
 11116 45c0 0E94 0000 		call strchr
 11117               	.LM529:
 11118 45c4 0097      		sbiw r24,0
 11119 45c6 01F0      		breq .L807
 11120               	.LVL801:
 11121               	.LM530:
 11122 45c8 482F      		mov r20,r24
 11123               	.LVL802:
 11124 45ca 4C1B      		sub r20,r28
 11125               	.LM531:
 11126 45cc 5C01      		movw r10,r24
 11127 45ce 0894      		sec
 11128 45d0 A11C      		adc r10,__zero_reg__
 11129 45d2 B11C      		adc r11,__zero_reg__
 11130 45d4 00C0      		rjmp .L818
 11131               	.LVL803:
 11132               	.L807:
 11133               	.LM532:
 11134 45d6 FE01      		movw r30,r28
 11135 45d8 0190      		ld __tmp_reg__,Z+
 11136 45da 0020      		tst __tmp_reg__
 11137 45dc 01F4      		brne .-6
 11138 45de 3197      		sbiw r30,1
 11139 45e0 4E2F      		mov r20,r30
 11140               	.LVL804:
 11141 45e2 4C1B      		sub r20,r28
 11142               	.LM533:
 11143 45e4 5E01      		movw r10,r28
 11144               	.LVL805:
 11145 45e6 A40E      		add r10,r20
 11146 45e8 B11C      		adc r11,__zero_reg__
 11147 45ea 00C0      		rjmp .L818
 11148               	.LVL806:
 11149               	.L810:
 11150               	.LM534:
 11151 45ec F301      		movw r30,r6
 11152 45ee 0190      		ld __tmp_reg__,Z+
 11153 45f0 0020      		tst __tmp_reg__
 11154 45f2 01F4      		brne .-6
 11155 45f4 3197      		sbiw r30,1
 11156 45f6 E619      		sub r30,r6
 11157 45f8 F709      		sbc r31,r7
 11158 45fa E017      		cp r30,r16
 11159 45fc F107      		cpc r31,r17
 11160 45fe 01F4      		brne .L816
 11161 4600 CE01      		movw r24,r28
 11162 4602 B301      		movw r22,r6
 11163 4604 A801      		movw r20,r16
 11164               	.LVL807:
 11165 4606 0E94 0000 		call strncmp
 11166 460a 0097      		sbiw r24,0
 11167 460c 01F4      		brne .L816
 11168               	.LBB107:
 11169               	.LBB108:
 11170               	.LM535:
 11171 460e F601      		movw r30,r12
 11172 4610 1182      		std Z+1,__zero_reg__
 11173 4612 1082      		st Z,__zero_reg__
 11174               	.LBE108:
 11175               	.LBE107:
 11176               	.LM536:
 11177 4614 0C0F      		add r16,r28
 11178 4616 1D1F      		adc r17,r29
 11179               	.LVL808:
 11180 4618 F801      		movw r30,r16
 11181 461a 8081      		ld r24,Z
 11182 461c 8823      		tst r24
 11183 461e 01F0      		breq .L806
 11184               	.LM537:
 11185 4620 F701      		movw r30,r14
 11186 4622 80A1      		ldd r24,Z+32
 11187 4624 84FD      		sbrc r24,4
 11188 4626 00C0      		rjmp .L809
 11189 4628 00C0      		rjmp .L803
 11190               	.LVL809:
 11191               	.L818:
 11192               	.LM538:
 11193 462a 042F      		mov r16,r20
 11194 462c 10E0      		ldi r17,lo8(0)
 11195               	.LVL810:
 11196               	.L816:
 11197               	.LM539:
 11198 462e C601      		movw r24,r12
 11199 4630 B701      		movw r22,r14
 11200 4632 0E94 0000 		call fat_read_dir
 11201 4636 8823      		tst r24
 11202 4638 01F4      		brne .L810
 11203 463a 00C0      		rjmp .L820
 11204               	.LVL811:
 11205               	.L803:
 11206 463c 80E0      		ldi r24,lo8(0)
 11207 463e 00C0      		rjmp .L812
 11208               	.L806:
 11209 4640 81E0      		ldi r24,lo8(1)
 11210               	.L812:
 11211               	/* epilogue start */
 11212               	.LBE106:
 11213               	.LM540:
 11214 4642 DF91      		pop r29
 11215 4644 CF91      		pop r28
 11216               	.LVL812:
 11217 4646 1F91      		pop r17
 11218               	.LVL813:
 11219 4648 0F91      		pop r16
 11220               	.LVL814:
 11221 464a FF90      		pop r15
 11222 464c EF90      		pop r14
 11223               	.LVL815:
 11224 464e DF90      		pop r13
 11225 4650 CF90      		pop r12
 11226               	.LVL816:
 11227 4652 BF90      		pop r11
 11228 4654 AF90      		pop r10
 11229               	.LVL817:
 11230 4656 9F90      		pop r9
 11231 4658 8F90      		pop r8
 11232               	.LVL818:
 11233 465a 7F90      		pop r7
 11234 465c 6F90      		pop r6
 11235 465e 0895      		ret
 11236               	.LVL819:
 11237               	.L820:
 11238               	.LBB111:
 11239               	.LBB109:
 11240               	.LBB110:
 11241               	.LM541:
 11242 4660 F601      		movw r30,r12
 11243 4662 1182      		std Z+1,__zero_reg__
 11244 4664 1082      		st Z,__zero_reg__
 11245 4666 00C0      		rjmp .L817
 11246               	.LBE110:
 11247               	.LBE109:
 11248               	.LBE111:
 11249               	.LFE12:
 11251               		.data
 11254               	char_mapping.2082:
 11255 0000 01        		.byte	1
 11256 0001 03        		.byte	3
 11257 0002 05        		.byte	5
 11258 0003 07        		.byte	7
 11259 0004 09        		.byte	9
 11260 0005 0E        		.byte	14
 11261 0006 10        		.byte	16
 11262 0007 12        		.byte	18
 11263 0008 14        		.byte	20
 11264 0009 16        		.byte	22
 11265 000a 18        		.byte	24
 11266 000b 1C        		.byte	28
 11267 000c 1E        		.byte	30
 11268               		.lcomm fat_fs_handles,46
 11269               		.lcomm fat_file_handles,63
 11270               		.lcomm fat_dir_handles,114
 11511               	.Letext0:
DEFINED SYMBOLS
                            *ABS*:00000000 fat.c
C:\DOCUME~1\Ryan\LOCALS~1\Temp/ccSzzb1L.s:2      *ABS*:0000003f __SREG__
C:\DOCUME~1\Ryan\LOCALS~1\Temp/ccSzzb1L.s:3      *ABS*:0000003e __SP_H__
C:\DOCUME~1\Ryan\LOCALS~1\Temp/ccSzzb1L.s:4      *ABS*:0000003d __SP_L__
C:\DOCUME~1\Ryan\LOCALS~1\Temp/ccSzzb1L.s:5      *ABS*:00000034 __CCP__
C:\DOCUME~1\Ryan\LOCALS~1\Temp/ccSzzb1L.s:6      *ABS*:00000000 __tmp_reg__
C:\DOCUME~1\Ryan\LOCALS~1\Temp/ccSzzb1L.s:7      *ABS*:00000001 __zero_reg__
C:\DOCUME~1\Ryan\LOCALS~1\Temp/ccSzzb1L.s:18     .text:00000000 fat_close
C:\DOCUME~1\Ryan\LOCALS~1\Temp/ccSzzb1L.s:37     .text:0000000c fat_get_next_cluster
C:\DOCUME~1\Ryan\LOCALS~1\Temp/ccSzzb1L.s:478    .text:000002ee fat_free_clusters
C:\DOCUME~1\Ryan\LOCALS~1\Temp/ccSzzb1L.s:1013   .text:00000666 fat_append_clusters
C:\DOCUME~1\Ryan\LOCALS~1\Temp/ccSzzb1L.s:1979   .text:00000cc0 fat_clear_cluster_callback
C:\DOCUME~1\Ryan\LOCALS~1\Temp/ccSzzb1L.s:1995   .text:00000cc6 fat_close_file
C:\DOCUME~1\Ryan\LOCALS~1\Temp/ccSzzb1L.s:2015   .text:00000cd2 fat_read_file
C:\DOCUME~1\Ryan\LOCALS~1\Temp/ccSzzb1L.s:3104   .text:00001392 fat_close_dir
C:\DOCUME~1\Ryan\LOCALS~1\Temp/ccSzzb1L.s:3124   .text:0000139e fat_reset_dir
C:\DOCUME~1\Ryan\LOCALS~1\Temp/ccSzzb1L.s:3158   .text:000013c0 fat_dir_entry_read_callback
C:\DOCUME~1\Ryan\LOCALS~1\Temp/ccSzzb1L.s:11254  .data:00000000 char_mapping.2082
C:\DOCUME~1\Ryan\LOCALS~1\Temp/ccSzzb1L.s:3507   .text:00001598 fat_delete_file
C:\DOCUME~1\Ryan\LOCALS~1\Temp/ccSzzb1L.s:3783   .text:00001742 fat_get_fs_size
C:\DOCUME~1\Ryan\LOCALS~1\Temp/ccSzzb1L.s:3900   .text:000017fc fat_get_fs_free
C:\DOCUME~1\Ryan\LOCALS~1\Temp/ccSzzb1L.s:4352   .text:00001ab6 fat_get_fs_free_32_callback
C:\DOCUME~1\Ryan\LOCALS~1\Temp/ccSzzb1L.s:4285   .text:00001a6a fat_get_fs_free_16_callback
C:\DOCUME~1\Ryan\LOCALS~1\Temp/ccSzzb1L.s:4423   .text:00001b0a fat_clear_cluster
C:\DOCUME~1\Ryan\LOCALS~1\Temp/ccSzzb1L.s:4701   .text:00001cc6 fat_read_dir
C:\DOCUME~1\Ryan\LOCALS~1\Temp/ccSzzb1L.s:5196   .text:00001ff8 fat_open
                             .bss:00000000 fat_fs_handles
C:\DOCUME~1\Ryan\LOCALS~1\Temp/ccSzzb1L.s:6356   .text:0000283a fat_find_offset_for_dir_entry
C:\DOCUME~1\Ryan\LOCALS~1\Temp/ccSzzb1L.s:7352   .text:00002e90 fat_write_dir_entry
C:\DOCUME~1\Ryan\LOCALS~1\Temp/ccSzzb1L.s:8028   .text:00003268 fat_create_dir
C:\DOCUME~1\Ryan\LOCALS~1\Temp/ccSzzb1L.s:8590   .text:0000363a fat_create_file
C:\DOCUME~1\Ryan\LOCALS~1\Temp/ccSzzb1L.s:8740   .text:0000371a fat_resize_file
C:\DOCUME~1\Ryan\LOCALS~1\Temp/ccSzzb1L.s:9482   .text:00003bca fat_seek_file
C:\DOCUME~1\Ryan\LOCALS~1\Temp/ccSzzb1L.s:9639   .text:00003c9a fat_write_file
C:\DOCUME~1\Ryan\LOCALS~1\Temp/ccSzzb1L.s:10841  .text:00004434 fat_open_dir
C:\DOCUME~1\Ryan\LOCALS~1\Temp/ccSzzb1L.s:11269  .bss:0000006d fat_dir_handles
C:\DOCUME~1\Ryan\LOCALS~1\Temp/ccSzzb1L.s:10937  .text:000044b6 fat_open_file
C:\DOCUME~1\Ryan\LOCALS~1\Temp/ccSzzb1L.s:11268  .bss:0000002e fat_file_handles
C:\DOCUME~1\Ryan\LOCALS~1\Temp/ccSzzb1L.s:11026  .text:00004546 fat_get_dir_entry_of_path

UNDEFINED SYMBOLS
__muldi3
__ashldi3
__mulsi3
__udivmodhi4
__udivmodsi4
__divmodhi4
memset
strrchr
memcpy
strcmp
strncpy
strchr
strncmp
__do_copy_data
__do_clear_bss
