   1               		.file	"main.c"
   2               	__SREG__ = 0x3f
   3               	__SP_H__ = 0x3e
   4               	__SP_L__ = 0x3d
   5               	__CCP__  = 0x34
   6               	__tmp_reg__ = 0
   7               	__zero_reg__ = 1
  15               	.Ltext0:
  17               	uart_putchar:
  18               	.LFB7:
  19               	.LM1:
  20               	.LVL0:
  21 0000 1F93      		push r17
  22               	/* prologue: function */
  23               	/* frame size = 0 */
  24 0002 182F      		mov r17,r24
  25               	.LM2:
  26 0004 8A30      		cpi r24,lo8(10)
  27 0006 01F4      		brne .L4
  28               	.LM3:
  29 0008 8DE0      		ldi r24,lo8(13)
  30               	.LVL1:
  31 000a 0E94 0000 		call uart_putchar
  32               	.LVL2:
  33               	.L4:
  34               	.LM4:
  35 000e 8091 C000 		lds r24,192
  36 0012 85FF      		sbrs r24,5
  37 0014 00C0      		rjmp .L4
  38               	.LM5:
  39 0016 1093 C600 		sts 198,r17
  40               	.LM6:
  41 001a 80E0      		ldi r24,lo8(0)
  42 001c 90E0      		ldi r25,hi8(0)
  43               	/* epilogue start */
  44 001e 1F91      		pop r17
  45               	.LVL3:
  46 0020 0895      		ret
  47               	.LFE7:
  49               	.global	uart_getchar
  51               	uart_getchar:
  52               	.LFB8:
  53               	.LM7:
  54               	/* prologue: function */
  55               	/* frame size = 0 */
  56               	.L7:
  57               	.LM8:
  58 0022 8091 C000 		lds r24,192
  59 0026 87FF      		sbrs r24,7
  60 0028 00C0      		rjmp .L7
  61               	.LM9:
  62 002a 8091 C600 		lds r24,198
  63               	/* epilogue start */
  64               	.LM10:
  65 002e 0895      		ret
  66               	.LFE8:
  68               	.global	delay_us
  70               	delay_us:
  71               	.LFB13:
  72               	.LM11:
  73               	.LVL4:
  74               	/* prologue: function */
  75               	/* frame size = 0 */
  76 0030 9C01      		movw r18,r24
  77               	.LM12:
  78 0032 81E0      		ldi r24,lo8(1)
  79               	.LVL5:
  80 0034 00C0      		rjmp .L11
  81               	.L13:
  82 0036 87BB      		out 55-32,r24
  83               	.LM13:
  84 0038 1092 B200 		sts 178,__zero_reg__
  85               	.L12:
  86               	.LM14:
  87 003c B89B      		sbis 55-32,0
  88 003e 00C0      		rjmp .L12
  89               	.LM15:
  90 0040 2050      		subi r18,lo8(-(-256))
  91 0042 3140      		sbci r19,hi8(-(-256))
  92               	.L11:
  93               	.LM16:
  94 0044 91E0      		ldi r25,hi8(257)
  95 0046 2130      		cpi r18,lo8(257)
  96 0048 3907      		cpc r19,r25
  97 004a 00F4      		brsh .L13
  98               	.LM17:
  99 004c 81E0      		ldi r24,lo8(1)
 100 004e 87BB      		out 55-32,r24
 101               	.LM18:
 102 0050 822F      		mov r24,r18
 103               	.LVL6:
 104 0052 8195      		neg r24
 105 0054 8093 B200 		sts 178,r24
 106               	.L14:
 107               	.LM19:
 108 0058 B89B      		sbis 55-32,0
 109 005a 00C0      		rjmp .L14
 110               	/* epilogue start */
 111               	.LM20:
 112 005c 0895      		ret
 113               	.LFE13:
 115               	.global	delay_ms
 117               	delay_ms:
 118               	.LFB12:
 119               	.LM21:
 120               	.LVL7:
 121 005e CF93      		push r28
 122 0060 DF93      		push r29
 123               	/* prologue: function */
 124               	/* frame size = 0 */
 125 0062 EC01      		movw r28,r24
 126 0064 00C0      		rjmp .L19
 127               	.LVL8:
 128               	.L20:
 129               	.LM22:
 130 0066 88EE      		ldi r24,lo8(1000)
 131 0068 93E0      		ldi r25,hi8(1000)
 132 006a 0E94 0000 		call delay_us
 133               	.LM23:
 134 006e 2197      		sbiw r28,1
 135               	.LVL9:
 136               	.L19:
 137 0070 2097      		sbiw r28,0
 138 0072 01F4      		brne .L20
 139               	/* epilogue start */
 140               	.LM24:
 141 0074 DF91      		pop r29
 142 0076 CF91      		pop r28
 143               	.LVL10:
 144 0078 0895      		ret
 145               	.LFE12:
 147               	.global	get_command
 149               	get_command:
 150               	.LFB15:
 151               	.LM25:
 152               	.LVL11:
 153 007a 1F93      		push r17
 154 007c CF93      		push r28
 155 007e DF93      		push r29
 156               	/* prologue: function */
 157               	/* frame size = 0 */
 158 0080 EC01      		movw r28,r24
 159               	.LVL12:
 160               	.L23:
 161               	.LBB6:
 162               	.LBB7:
 163               	.LM26:
 164 0082 8091 C000 		lds r24,192
 165 0086 87FF      		sbrs r24,7
 166 0088 00C0      		rjmp .L23
 167               	.LM27:
 168 008a 8091 C600 		lds r24,198
 169               	.LVL13:
 170 008e 10E0      		ldi r17,lo8(0)
 171               	.LVL14:
 172 0090 00C0      		rjmp .L24
 173               	.L29:
 174               	.LBE7:
 175               	.LBE6:
 176               	.LM28:
 177 0092 8993      		st Y+,r24
 178               	.LM29:
 179 0094 90E0      		ldi r25,lo8(0)
 180 0096 0E94 0000 		call putchar
 181               	.LVL15:
 182               	.LM30:
 183 009a 1123      		tst r17
 184 009c 01F0      		breq .L25
 185 009e 1230      		cpi r17,lo8(2)
 186 00a0 01F0      		breq .L25
 187 00a2 1430      		cpi r17,lo8(4)
 188 00a4 01F4      		brne .L26
 189               	.L25:
 190 00a6 80E2      		ldi r24,lo8(32)
 191 00a8 90E0      		ldi r25,hi8(32)
 192 00aa 0E94 0000 		call putchar
 193               	.L26:
 194               	.LM31:
 195 00ae 1F5F      		subi r17,lo8(-(1))
 196               	.LM32:
 197 00b0 1530      		cpi r17,lo8(5)
 198 00b2 01F0      		breq .L27
 199               	.L34:
 200               	.LBB8:
 201               	.LBB9:
 202               	.LM33:
 203 00b4 8091 C000 		lds r24,192
 204 00b8 87FF      		sbrs r24,7
 205 00ba 00C0      		rjmp .L34
 206               	.LM34:
 207 00bc 8091 C600 		lds r24,198
 208               	.LVL16:
 209               	.L24:
 210               	.LBE9:
 211               	.LBE8:
 212               	.LM35:
 213 00c0 8D30      		cpi r24,lo8(13)
 214 00c2 01F4      		brne .L29
 215               	.L27:
 216               	.LM36:
 217 00c4 1882      		st Y,__zero_reg__
 218               	.LM37:
 219 00c6 1123      		tst r17
 220 00c8 01F0      		breq .L30
 221 00ca 1230      		cpi r17,lo8(2)
 222 00cc 01F0      		breq .L30
 223 00ce 80E0      		ldi r24,lo8(0)
 224               	.LVL17:
 225 00d0 1430      		cpi r17,lo8(4)
 226 00d2 01F0      		breq .L32
 227 00d4 81E0      		ldi r24,lo8(1)
 228 00d6 00C0      		rjmp .L32
 229               	.LVL18:
 230               	.L30:
 231 00d8 80E0      		ldi r24,lo8(0)
 232               	.LVL19:
 233               	.L32:
 234               	/* epilogue start */
 235               	.LM38:
 236 00da DF91      		pop r29
 237 00dc CF91      		pop r28
 238               	.LVL20:
 239 00de 1F91      		pop r17
 240               	.LVL21:
 241 00e0 0895      		ret
 242               	.LFE15:
 244               		.data
 245               	.LC0:
 246 0000 2563 2563 		.string	"%c%c"
 246      00
 247               	.LC1:
 248 0005 0A52 6567 		.string	"\nReg. Address: %02x\n"
 248      2E20 4164 
 248      6472 6573 
 248      733A 2025 
 248      3032 780A 
 249               	.LC2:
 250 001a 5265 672E 		.string	"Reg. Value: %02x"
 250      2056 616C 
 250      7565 3A20 
 250      2530 3278 
 250      00
 251               	.LC3:
 252 002b 0A52 6567 		.string	"\nReg. Address: %x\n"
 252      2E20 4164 
 252      6472 6573 
 252      733A 2025 
 252      780A 00
 253               	.LC4:
 254 003e 2530 3278 		.string	"%02x"
 254      00
 255               	.LC5:
 256 0043 2530 3278 		.string	"%02x,"
 256      2C00 
 257               	.LC6:
 258 0049 0A49 6E76 		.string	"\nInvalid Command"
 258      616C 6964 
 258      2043 6F6D 
 258      6D61 6E64 
 258      00
 259               		.text
 260               	.global	execute_command
 262               	execute_command:
 263               	.LFB14:
 264               	.LM39:
 265               	.LVL22:
 266 00e2 CF92      		push r12
 267 00e4 DF92      		push r13
 268 00e6 EF92      		push r14
 269 00e8 FF92      		push r15
 270 00ea 0F93      		push r16
 271 00ec 1F93      		push r17
 272 00ee DF93      		push r29
 273 00f0 CF93      		push r28
 274 00f2 00D0      		rcall .
 275 00f4 00D0      		rcall .
 276 00f6 CDB7      		in r28,__SP_L__
 277 00f8 DEB7      		in r29,__SP_H__
 278               	/* prologue: function */
 279               	/* frame size = 4 */
 280 00fa 7C01      		movw r14,r24
 281               	.LM40:
 282 00fc FC01      		movw r30,r24
 283 00fe 0190      		ld __tmp_reg__,Z+
 284 0100 0020      		tst __tmp_reg__
 285 0102 01F4      		brne .-6
 286 0104 3197      		sbiw r30,1
 287 0106 DE2E      		mov r13,r30
 288               	.LVL23:
 289 0108 D81A      		sub r13,r24
 290               	.LM41:
 291 010a 8DB7      		in r24,__SP_L__
 292 010c 9EB7      		in r25,__SP_H__
 293               	.LVL24:
 294 010e 0897      		sbiw r24,8
 295 0110 0FB6      		in __tmp_reg__,__SREG__
 296 0112 F894      		cli
 297 0114 9EBF      		out __SP_H__,r25
 298 0116 0FBE      		out __SREG__,__tmp_reg__
 299 0118 8DBF      		out __SP_L__,r24
 300 011a EDB7      		in r30,__SP_L__
 301 011c FEB7      		in r31,__SP_H__
 302 011e 3196      		adiw r30,1
 303 0120 8E01      		movw r16,r28
 304 0122 0F5F      		subi r16,lo8(-(1))
 305 0124 1F4F      		sbci r17,hi8(-(1))
 306 0126 ADB7      		in r26,__SP_L__
 307 0128 BEB7      		in r27,__SP_H__
 308 012a 1296      		adiw r26,1+1
 309 012c 1C93      		st X,r17
 310 012e 0E93      		st -X,r16
 311 0130 1197      		sbiw r26,1
 312 0132 80E0      		ldi r24,lo8(.LC0)
 313 0134 90E0      		ldi r25,hi8(.LC0)
 314 0136 9383      		std Z+3,r25
 315 0138 8283      		std Z+2,r24
 316 013a D701      		movw r26,r14
 317 013c 1196      		adiw r26,1
 318 013e 8C91      		ld r24,X
 319 0140 1197      		sbiw r26,1
 320 0142 8483      		std Z+4,r24
 321 0144 1582      		std Z+5,__zero_reg__
 322 0146 1296      		adiw r26,2
 323 0148 8C91      		ld r24,X
 324 014a 8683      		std Z+6,r24
 325 014c 1782      		std Z+7,__zero_reg__
 326 014e 0E94 0000 		call sprintf
 327               	.LM42:
 328 0152 EDB7      		in r30,__SP_L__
 329 0154 FEB7      		in r31,__SP_H__
 330 0156 3896      		adiw r30,8
 331 0158 0FB6      		in __tmp_reg__,__SREG__
 332 015a F894      		cli
 333 015c FEBF      		out __SP_H__,r31
 334 015e 0FBE      		out __SREG__,__tmp_reg__
 335 0160 EDBF      		out __SP_L__,r30
 336 0162 C801      		movw r24,r16
 337 0164 60E0      		ldi r22,lo8(0)
 338 0166 70E0      		ldi r23,hi8(0)
 339 0168 40E1      		ldi r20,lo8(16)
 340 016a 50E0      		ldi r21,hi8(16)
 341 016c 0E94 0000 		call strtol
 342 0170 C62E      		mov r12,r22
 343               	.LM43:
 344 0172 D701      		movw r26,r14
 345 0174 8C91      		ld r24,X
 346 0176 8235      		cpi r24,lo8(82)
 347 0178 01F0      		breq .L38
 348 017a 8237      		cpi r24,lo8(114)
 349 017c 01F4      		brne .L39
 350               	.L38:
 351               	.LM44:
 352 017e B3E0      		ldi r27,lo8(3)
 353 0180 DB16      		cp r13,r27
 354 0182 01F0      		breq .+2
 355 0184 00C0      		rjmp .L40
 356               	.LM45:
 357 0186 8C2D      		mov r24,r12
 358 0188 0E94 0000 		call adxl345_read
 359 018c 182F      		mov r17,r24
 360               	.LVL25:
 361               	.LM46:
 362 018e 00D0      		rcall .
 363 0190 00D0      		rcall .
 364 0192 EDB7      		in r30,__SP_L__
 365 0194 FEB7      		in r31,__SP_H__
 366 0196 3196      		adiw r30,1
 367 0198 80E0      		ldi r24,lo8(.LC1)
 368 019a 90E0      		ldi r25,hi8(.LC1)
 369 019c 00C0      		rjmp .L51
 370               	.LVL26:
 371               	.L39:
 372               	.LM47:
 373 019e 8737      		cpi r24,lo8(119)
 374 01a0 01F0      		breq .L42
 375 01a2 8735      		cpi r24,lo8(87)
 376 01a4 01F0      		breq .+2
 377 01a6 00C0      		rjmp .L43
 378               	.L42:
 379               	.LM48:
 380 01a8 B5E0      		ldi r27,lo8(5)
 381 01aa DB16      		cp r13,r27
 382 01ac 01F0      		breq .+2
 383 01ae 00C0      		rjmp .L40
 384               	.LM49:
 385 01b0 EDB7      		in r30,__SP_L__
 386 01b2 FEB7      		in r31,__SP_H__
 387 01b4 3897      		sbiw r30,8
 388 01b6 0FB6      		in __tmp_reg__,__SREG__
 389 01b8 F894      		cli
 390 01ba FEBF      		out __SP_H__,r31
 391 01bc 0FBE      		out __SREG__,__tmp_reg__
 392 01be EDBF      		out __SP_L__,r30
 393 01c0 3196      		adiw r30,1
 394 01c2 8E01      		movw r16,r28
 395 01c4 0D5F      		subi r16,lo8(-(3))
 396 01c6 1F4F      		sbci r17,hi8(-(3))
 397 01c8 ADB7      		in r26,__SP_L__
 398 01ca BEB7      		in r27,__SP_H__
 399 01cc 1296      		adiw r26,1+1
 400 01ce 1C93      		st X,r17
 401 01d0 0E93      		st -X,r16
 402 01d2 1197      		sbiw r26,1
 403 01d4 80E0      		ldi r24,lo8(.LC0)
 404 01d6 90E0      		ldi r25,hi8(.LC0)
 405 01d8 9383      		std Z+3,r25
 406 01da 8283      		std Z+2,r24
 407 01dc D701      		movw r26,r14
 408 01de 1396      		adiw r26,3
 409 01e0 8C91      		ld r24,X
 410 01e2 1397      		sbiw r26,3
 411 01e4 8483      		std Z+4,r24
 412 01e6 1582      		std Z+5,__zero_reg__
 413 01e8 1496      		adiw r26,4
 414 01ea 8C91      		ld r24,X
 415 01ec 8683      		std Z+6,r24
 416 01ee 1782      		std Z+7,__zero_reg__
 417 01f0 0E94 0000 		call sprintf
 418               	.LM50:
 419 01f4 EDB7      		in r30,__SP_L__
 420 01f6 FEB7      		in r31,__SP_H__
 421 01f8 3896      		adiw r30,8
 422 01fa 0FB6      		in __tmp_reg__,__SREG__
 423 01fc F894      		cli
 424 01fe FEBF      		out __SP_H__,r31
 425 0200 0FBE      		out __SREG__,__tmp_reg__
 426 0202 EDBF      		out __SP_L__,r30
 427 0204 C801      		movw r24,r16
 428 0206 60E0      		ldi r22,lo8(0)
 429 0208 70E0      		ldi r23,hi8(0)
 430 020a 40E1      		ldi r20,lo8(16)
 431 020c 50E0      		ldi r21,hi8(16)
 432 020e 0E94 0000 		call strtol
 433               	.LM51:
 434 0212 8C2D      		mov r24,r12
 435 0214 0E94 0000 		call adxl345_write
 436               	.LM52:
 437 0218 8C2D      		mov r24,r12
 438 021a 0E94 0000 		call adxl345_read
 439 021e 182F      		mov r17,r24
 440               	.LVL27:
 441               	.LM53:
 442 0220 00D0      		rcall .
 443 0222 00D0      		rcall .
 444 0224 EDB7      		in r30,__SP_L__
 445 0226 FEB7      		in r31,__SP_H__
 446 0228 3196      		adiw r30,1
 447 022a 80E0      		ldi r24,lo8(.LC3)
 448 022c 90E0      		ldi r25,hi8(.LC3)
 449               	.L51:
 450 022e ADB7      		in r26,__SP_L__
 451 0230 BEB7      		in r27,__SP_H__
 452 0232 1296      		adiw r26,1+1
 453 0234 9C93      		st X,r25
 454 0236 8E93      		st -X,r24
 455 0238 1197      		sbiw r26,1
 456 023a C282      		std Z+2,r12
 457 023c 1382      		std Z+3,__zero_reg__
 458 023e 0E94 0000 		call printf
 459               	.LM54:
 460 0242 EDB7      		in r30,__SP_L__
 461 0244 FEB7      		in r31,__SP_H__
 462 0246 3196      		adiw r30,1
 463 0248 80E0      		ldi r24,lo8(.LC2)
 464 024a 90E0      		ldi r25,hi8(.LC2)
 465 024c ADB7      		in r26,__SP_L__
 466 024e BEB7      		in r27,__SP_H__
 467 0250 1296      		adiw r26,1+1
 468 0252 9C93      		st X,r25
 469 0254 8E93      		st -X,r24
 470 0256 1197      		sbiw r26,1
 471 0258 1283      		std Z+2,r17
 472 025a 00C0      		rjmp .L50
 473               	.LVL28:
 474               	.L43:
 475               	.LM55:
 476 025c 8D31      		cpi r24,lo8(29)
 477 025e 00F4      		brsh .L44
 478               	.LM56:
 479 0260 B1E0      		ldi r27,lo8(1)
 480 0262 BD15      		cp r27,r13
 481 0264 00F4      		brsh .+2
 482 0266 00C0      		rjmp .L40
 483               	.LM57:
 484 0268 835E      		subi r24,lo8(-(29))
 485 026a 0E94 0000 		call adxl345_read
 486               	.LM58:
 487 026e 00D0      		rcall .
 488 0270 00D0      		rcall .
 489 0272 EDB7      		in r30,__SP_L__
 490 0274 FEB7      		in r31,__SP_H__
 491 0276 3196      		adiw r30,1
 492 0278 20E0      		ldi r18,lo8(.LC4)
 493 027a 30E0      		ldi r19,hi8(.LC4)
 494 027c ADB7      		in r26,__SP_L__
 495 027e BEB7      		in r27,__SP_H__
 496 0280 1296      		adiw r26,1+1
 497 0282 3C93      		st X,r19
 498 0284 2E93      		st -X,r18
 499 0286 1197      		sbiw r26,1
 500 0288 8283      		std Z+2,r24
 501               	.LVL29:
 502               	.L50:
 503 028a 1382      		std Z+3,__zero_reg__
 504 028c 0E94 0000 		call printf
 505 0290 81E0      		ldi r24,lo8(1)
 506 0292 0F90      		pop __tmp_reg__
 507 0294 0F90      		pop __tmp_reg__
 508 0296 0F90      		pop __tmp_reg__
 509 0298 0F90      		pop __tmp_reg__
 510 029a 00C0      		rjmp .L41
 511               	.LVL30:
 512               	.L44:
 513               	.LM59:
 514 029c 8E31      		cpi r24,lo8(30)
 515 029e 01F4      		brne .L45
 516               	.LM60:
 517 02a0 B1E0      		ldi r27,lo8(1)
 518 02a2 BD15      		cp r27,r13
 519 02a4 00F0      		brlo .L40
 520 02a6 1DE1      		ldi r17,lo8(29)
 521               	.LVL31:
 522               	.LM61:
 523 02a8 80E0      		ldi r24,lo8(.LC5)
 524 02aa E82E      		mov r14,r24
 525 02ac 80E0      		ldi r24,hi8(.LC5)
 526 02ae F82E      		mov r15,r24
 527               	.LVL32:
 528               	.L46:
 529 02b0 812F      		mov r24,r17
 530 02b2 0E94 0000 		call adxl345_read
 531 02b6 00D0      		rcall .
 532 02b8 00D0      		rcall .
 533 02ba EDB7      		in r30,__SP_L__
 534 02bc FEB7      		in r31,__SP_H__
 535 02be 3196      		adiw r30,1
 536 02c0 ADB7      		in r26,__SP_L__
 537 02c2 BEB7      		in r27,__SP_H__
 538 02c4 1296      		adiw r26,1+1
 539 02c6 FC92      		st X,r15
 540 02c8 EE92      		st -X,r14
 541 02ca 1197      		sbiw r26,1
 542 02cc 8283      		std Z+2,r24
 543 02ce 1382      		std Z+3,__zero_reg__
 544 02d0 0E94 0000 		call printf
 545               	.LM62:
 546 02d4 1F5F      		subi r17,lo8(-(1))
 547 02d6 0F90      		pop __tmp_reg__
 548 02d8 0F90      		pop __tmp_reg__
 549 02da 0F90      		pop __tmp_reg__
 550 02dc 0F90      		pop __tmp_reg__
 551 02de 1A33      		cpi r17,lo8(58)
 552 02e0 01F4      		brne .L46
 553 02e2 81E0      		ldi r24,lo8(1)
 554 02e4 00C0      		rjmp .L41
 555               	.LVL33:
 556               	.L45:
 557               	.LM63:
 558 02e6 8337      		cpi r24,lo8(115)
 559 02e8 01F0      		breq .L47
 560 02ea 8335      		cpi r24,lo8(83)
 561 02ec 01F0      		breq .L47
 562               	.LM64:
 563 02ee 00D0      		rcall .
 564 02f0 80E0      		ldi r24,lo8(.LC6)
 565 02f2 90E0      		ldi r25,hi8(.LC6)
 566 02f4 EDB7      		in r30,__SP_L__
 567 02f6 FEB7      		in r31,__SP_H__
 568 02f8 9283      		std Z+2,r25
 569 02fa 8183      		std Z+1,r24
 570 02fc 0E94 0000 		call printf
 571 0300 80E0      		ldi r24,lo8(0)
 572 0302 0F90      		pop __tmp_reg__
 573 0304 0F90      		pop __tmp_reg__
 574 0306 00C0      		rjmp .L41
 575               	.L40:
 576               	.LM65:
 577 0308 80E0      		ldi r24,lo8(0)
 578 030a 00C0      		rjmp .L41
 579               	.L47:
 580 030c 82E0      		ldi r24,lo8(2)
 581               	.LVL34:
 582               	.L41:
 583               	/* epilogue start */
 584               	.LM66:
 585 030e 0F90      		pop __tmp_reg__
 586 0310 0F90      		pop __tmp_reg__
 587 0312 0F90      		pop __tmp_reg__
 588 0314 0F90      		pop __tmp_reg__
 589 0316 CF91      		pop r28
 590 0318 DF91      		pop r29
 591 031a 1F91      		pop r17
 592               	.LVL35:
 593 031c 0F91      		pop r16
 594 031e FF90      		pop r15
 595 0320 EF90      		pop r14
 596               	.LVL36:
 597 0322 DF90      		pop r13
 598               	.LVL37:
 599 0324 CF90      		pop r12
 600 0326 0895      		ret
 601               	.LFE14:
 603               		.data
 604               	.LC7:
 605 005a 2F00      		.string	"/"
 606               		.text
 607               	.global	init_filesystem
 609               	init_filesystem:
 610               	.LFB11:
 611               	.LM67:
 612 0328 0F93      		push r16
 613               	/* prologue: function */
 614               	/* frame size = 0 */
 615               	.LM68:
 616 032a 0E94 0000 		call sd_raw_init
 617 032e 8823      		tst r24
 618 0330 01F4      		brne .+2
 619 0332 00C0      		rjmp .L53
 620               	.LM69:
 621 0334 80E0      		ldi r24,lo8(gs(sd_raw_read))
 622 0336 90E0      		ldi r25,hi8(gs(sd_raw_read))
 623 0338 60E0      		ldi r22,lo8(gs(sd_raw_read_interval))
 624 033a 70E0      		ldi r23,hi8(gs(sd_raw_read_interval))
 625 033c 40E0      		ldi r20,lo8(gs(sd_raw_write))
 626 033e 50E0      		ldi r21,hi8(gs(sd_raw_write))
 627 0340 20E0      		ldi r18,lo8(gs(sd_raw_write_interval))
 628 0342 30E0      		ldi r19,hi8(gs(sd_raw_write_interval))
 629 0344 00E0      		ldi r16,lo8(0)
 630 0346 0E94 0000 		call partition_open
 631 034a 9093 0000 		sts (partition)+1,r25
 632 034e 8093 0000 		sts partition,r24
 633               	.LM70:
 634 0352 892B      		or r24,r25
 635 0354 01F4      		brne .L54
 636               	.LM71:
 637 0356 80E0      		ldi r24,lo8(gs(sd_raw_read))
 638 0358 90E0      		ldi r25,hi8(gs(sd_raw_read))
 639 035a 60E0      		ldi r22,lo8(gs(sd_raw_read_interval))
 640 035c 70E0      		ldi r23,hi8(gs(sd_raw_read_interval))
 641 035e 40E0      		ldi r20,lo8(gs(sd_raw_write))
 642 0360 50E0      		ldi r21,hi8(gs(sd_raw_write))
 643 0362 20E0      		ldi r18,lo8(gs(sd_raw_write_interval))
 644 0364 30E0      		ldi r19,hi8(gs(sd_raw_write_interval))
 645 0366 0FEF      		ldi r16,lo8(-1)
 646 0368 0E94 0000 		call partition_open
 647 036c 9093 0000 		sts (partition)+1,r25
 648 0370 8093 0000 		sts partition,r24
 649               	.LM72:
 650 0374 892B      		or r24,r25
 651 0376 01F0      		breq .L53
 652               	.L54:
 653               	.LM73:
 654 0378 8091 0000 		lds r24,partition
 655 037c 9091 0000 		lds r25,(partition)+1
 656 0380 0E94 0000 		call fat_open
 657 0384 9093 0000 		sts (fs)+1,r25
 658 0388 8093 0000 		sts fs,r24
 659               	.LM74:
 660 038c 0097      		sbiw r24,0
 661 038e 01F0      		breq .L53
 662               	.LM75:
 663 0390 60E0      		ldi r22,lo8(.LC7)
 664 0392 70E0      		ldi r23,hi8(.LC7)
 665 0394 40E0      		ldi r20,lo8(directory)
 666 0396 50E0      		ldi r21,hi8(directory)
 667 0398 0E94 0000 		call fat_get_dir_entry_of_path
 668               	.LM76:
 669 039c 8091 0000 		lds r24,fs
 670 03a0 9091 0000 		lds r25,(fs)+1
 671 03a4 60E0      		ldi r22,lo8(directory)
 672 03a6 70E0      		ldi r23,hi8(directory)
 673 03a8 0E94 0000 		call fat_open_dir
 674 03ac 9093 0000 		sts (dd)+1,r25
 675 03b0 8093 0000 		sts dd,r24
 676 03b4 20E0      		ldi r18,lo8(0)
 677 03b6 892B      		or r24,r25
 678 03b8 01F0      		breq .L56
 679 03ba 21E0      		ldi r18,lo8(1)
 680 03bc 00C0      		rjmp .L56
 681               	.L53:
 682 03be 20E0      		ldi r18,lo8(0)
 683               	.L56:
 684               	.LM77:
 685 03c0 822F      		mov r24,r18
 686               	/* epilogue start */
 687 03c2 0F91      		pop r16
 688 03c4 0895      		ret
 689               	.LFE11:
 691               	.global	save_data
 693               	save_data:
 694               	.LFB10:
 695               	.LM78:
 696               	.LVL38:
 697               	/* prologue: function */
 698               	/* frame size = 0 */
 699               	.LM79:
 700 03c6 DB01      		movw r26,r22
 701 03c8 0D90      		ld __tmp_reg__,X+
 702 03ca 0020      		tst __tmp_reg__
 703 03cc 01F4      		brne .-6
 704 03ce 1197      		sbiw r26,1
 705 03d0 A61B      		sub r26,r22
 706 03d2 B70B      		sbc r27,r23
 707 03d4 FC01      		movw r30,r24
 708 03d6 8081      		ld r24,Z
 709 03d8 9181      		ldd r25,Z+1
 710               	.LVL39:
 711 03da AD01      		movw r20,r26
 712 03dc 0E94 0000 		call fat_write_file
 713               	.LVL40:
 714               	.LM80:
 715 03e0 0E94 0000 		call sd_raw_sync
 716               	/* epilogue start */
 717               	.LM81:
 718 03e4 0895      		ret
 719               	.LFE10:
 721               	.global	ioinit
 723               	ioinit:
 724               	.LFB6:
 725               	.LM82:
 726               	/* prologue: function */
 727               	/* frame size = 0 */
 728               	.LM83:
 729 03e6 0E94 0000 		call adxl345_hw_setup
 730               	.LM84:
 731 03ea 8AB1      		in r24,42-32
 732 03ec 826E      		ori r24,lo8(-30)
 733 03ee 8AB9      		out 42-32,r24
 734               	.LM85:
 735 03f0 589A      		sbi 43-32,0
 736               	.LM86:
 737 03f2 5098      		cbi 42-32,0
 738               	.LM87:
 739 03f4 87B1      		in r24,39-32
 740 03f6 806F      		ori r24,lo8(-16)
 741 03f8 87B9      		out 39-32,r24
 742               	.LM88:
 743 03fa 84B1      		in r24,36-32
 744 03fc 8360      		ori r24,lo8(3)
 745 03fe 84B9      		out 36-32,r24
 746               	.LM89:
 747 0400 1092 C500 		sts 197,__zero_reg__
 748               	.LM90:
 749 0404 89E1      		ldi r24,lo8(25)
 750 0406 8093 C400 		sts 196,r24
 751               	.LM91:
 752 040a 22E0      		ldi r18,lo8(2)
 753 040c 2093 C000 		sts 192,r18
 754               	.LM92:
 755 0410 88E1      		ldi r24,lo8(24)
 756 0412 8093 C100 		sts 193,r24
 757               	.LM93:
 758 0416 86E0      		ldi r24,lo8(6)
 759 0418 8093 C200 		sts 194,r24
 760               	.LM94:
 761 041c 80E0      		ldi r24,lo8(mystdout)
 762 041e 90E0      		ldi r25,hi8(mystdout)
 763 0420 9093 0000 		sts (__iob+2)+1,r25
 764 0424 8093 0000 		sts __iob+2,r24
 765               	.LM95:
 766 0428 2093 B100 		sts 177,r18
 767               	.LM96:
 768               	/* #APP */
 769               	 ;  270 "main.c" 1
 770 042c F894      		cli
 771               	 ;  0 "" 2
 772               	/* epilogue start */
 773               	.LM97:
 774               	/* #NOAPP */
 775 042e 0895      		ret
 776               	.LFE6:
 778               	.global	find_file_in_dir
 780               	find_file_in_dir:
 781               	.LFB4:
 782               	.LM98:
 783               	.LVL41:
 784 0430 EF92      		push r14
 785 0432 FF92      		push r15
 786 0434 0F93      		push r16
 787 0436 1F93      		push r17
 788 0438 CF93      		push r28
 789 043a DF93      		push r29
 790               	/* prologue: function */
 791               	/* frame size = 0 */
 792 043c EB01      		movw r28,r22
 793 043e 8A01      		movw r16,r20
 794 0440 7901      		movw r14,r18
 795               	.LVL42:
 796 0442 00C0      		rjmp .L63
 797               	.LVL43:
 798               	.L65:
 799               	.LM99:
 800 0444 C701      		movw r24,r14
 801 0446 B801      		movw r22,r16
 802 0448 0E94 0000 		call strcmp
 803               	.LM100:
 804 044c 0097      		sbiw r24,0
 805 044e 01F4      		brne .L63
 806               	.LM101:
 807 0450 CE01      		movw r24,r28
 808 0452 0E94 0000 		call fat_reset_dir
 809 0456 81E0      		ldi r24,lo8(1)
 810 0458 00C0      		rjmp .L64
 811               	.LVL44:
 812               	.L63:
 813               	.LM102:
 814 045a CE01      		movw r24,r28
 815               	.LVL45:
 816 045c B701      		movw r22,r14
 817 045e 0E94 0000 		call fat_read_dir
 818 0462 8823      		tst r24
 819 0464 01F4      		brne .L65
 820               	.L64:
 821               	/* epilogue start */
 822               	.LM103:
 823 0466 DF91      		pop r29
 824 0468 CF91      		pop r28
 825               	.LVL46:
 826 046a 1F91      		pop r17
 827 046c 0F91      		pop r16
 828               	.LVL47:
 829 046e FF90      		pop r15
 830 0470 EF90      		pop r14
 831 0472 0895      		ret
 832               	.LFE4:
 834               	.global	open_file_in_dir
 836               	open_file_in_dir:
 837               	.LFB5:
 838               	.LM104:
 839               	.LVL48:
 840 0474 EF92      		push r14
 841 0476 FF92      		push r15
 842 0478 0F93      		push r16
 843 047a 1F93      		push r17
 844 047c DF93      		push r29
 845 047e CF93      		push r28
 846 0480 CDB7      		in r28,__SP_L__
 847 0482 DEB7      		in r29,__SP_H__
 848 0484 E197      		sbiw r28,49
 849 0486 0FB6      		in __tmp_reg__,__SREG__
 850 0488 F894      		cli
 851 048a DEBF      		out __SP_H__,r29
 852 048c 0FBE      		out __SREG__,__tmp_reg__
 853 048e CDBF      		out __SP_L__,r28
 854               	/* prologue: function */
 855               	/* frame size = 49 */
 856 0490 8C01      		movw r16,r24
 857               	.LM105:
 858 0492 7E01      		movw r14,r28
 859 0494 0894      		sec
 860 0496 E11C      		adc r14,__zero_reg__
 861 0498 F11C      		adc r15,__zero_reg__
 862 049a 9701      		movw r18,r14
 863 049c 0E94 0000 		call find_file_in_dir
 864               	.LVL49:
 865 04a0 8823      		tst r24
 866 04a2 01F4      		brne .L69
 867 04a4 20E0      		ldi r18,lo8(0)
 868 04a6 30E0      		ldi r19,hi8(0)
 869 04a8 00C0      		rjmp .L70
 870               	.L69:
 871               	.LM106:
 872 04aa C801      		movw r24,r16
 873 04ac B701      		movw r22,r14
 874 04ae 0E94 0000 		call fat_open_file
 875 04b2 9C01      		movw r18,r24
 876               	.L70:
 877               	.LM107:
 878 04b4 C901      		movw r24,r18
 879               	/* epilogue start */
 880 04b6 E196      		adiw r28,49
 881 04b8 0FB6      		in __tmp_reg__,__SREG__
 882 04ba F894      		cli
 883 04bc DEBF      		out __SP_H__,r29
 884 04be 0FBE      		out __SREG__,__tmp_reg__
 885 04c0 CDBF      		out __SP_L__,r28
 886 04c2 CF91      		pop r28
 887 04c4 DF91      		pop r29
 888 04c6 1F91      		pop r17
 889 04c8 0F91      		pop r16
 890               	.LVL50:
 891 04ca FF90      		pop r15
 892 04cc EF90      		pop r14
 893 04ce 0895      		ret
 894               	.LFE5:
 896               		.data
 897               	.LC8:
 898 005c 4144 584C 		.string	"ADXL345_%03d.csv"
 898      3334 355F 
 898      2530 3364 
 898      2E63 7376 
 898      00
 899               		.text
 900               	.global	create_log_file
 902               	create_log_file:
 903               	.LFB9:
 904               	.LM108:
 905 04d0 BF92      		push r11
 906 04d2 CF92      		push r12
 907 04d4 DF92      		push r13
 908 04d6 EF92      		push r14
 909 04d8 FF92      		push r15
 910 04da 0F93      		push r16
 911 04dc 1F93      		push r17
 912 04de DF93      		push r29
 913 04e0 CF93      		push r28
 914 04e2 CDB7      		in r28,__SP_L__
 915 04e4 DEB7      		in r29,__SP_H__
 916 04e6 C155      		subi r28,lo8(-(-81))
 917 04e8 D040      		sbci r29,hi8(-(-81))
 918 04ea 0FB6      		in __tmp_reg__,__SREG__
 919 04ec F894      		cli
 920 04ee DEBF      		out __SP_H__,r29
 921 04f0 0FBE      		out __SREG__,__tmp_reg__
 922 04f2 CDBF      		out __SP_L__,r28
 923               	/* prologue: function */
 924               	/* frame size = 81 */
 925               	.LM109:
 926 04f4 00D0      		rcall .
 927 04f6 00D0      		rcall .
 928 04f8 00D0      		rcall .
 929 04fa EDB7      		in r30,__SP_L__
 930 04fc FEB7      		in r31,__SP_H__
 931 04fe 3196      		adiw r30,1
 932 0500 8E01      		movw r16,r28
 933 0502 0F5F      		subi r16,lo8(-(1))
 934 0504 1F4F      		sbci r17,hi8(-(1))
 935 0506 ADB7      		in r26,__SP_L__
 936 0508 BEB7      		in r27,__SP_H__
 937 050a 1296      		adiw r26,1+1
 938 050c 1C93      		st X,r17
 939 050e 0E93      		st -X,r16
 940 0510 1197      		sbiw r26,1
 941 0512 90E0      		ldi r25,lo8(.LC8)
 942 0514 E92E      		mov r14,r25
 943 0516 90E0      		ldi r25,hi8(.LC8)
 944 0518 F92E      		mov r15,r25
 945 051a F382      		std Z+3,r15
 946 051c E282      		std Z+2,r14
 947 051e 1582      		std Z+5,__zero_reg__
 948 0520 1482      		std Z+4,__zero_reg__
 949 0522 0E94 0000 		call sprintf
 950 0526 CC24      		clr r12
 951 0528 DD24      		clr r13
 952               	.LVL51:
 953 052a EDB7      		in r30,__SP_L__
 954 052c FEB7      		in r31,__SP_H__
 955 052e 3696      		adiw r30,6
 956 0530 0FB6      		in __tmp_reg__,__SREG__
 957 0532 F894      		cli
 958 0534 FEBF      		out __SP_H__,r31
 959 0536 0FBE      		out __SREG__,__tmp_reg__
 960 0538 EDBF      		out __SP_L__,r30
 961               	.LM110:
 962 053a BE2C      		mov r11,r14
 963 053c EF2C      		mov r14,r15
 964 053e 00C0      		rjmp .L73
 965               	.L74:
 966               	.LM111:
 967 0540 0894      		sec
 968 0542 C11C      		adc r12,__zero_reg__
 969 0544 D11C      		adc r13,__zero_reg__
 970               	.LM112:
 971 0546 00D0      		rcall .
 972 0548 00D0      		rcall .
 973 054a 00D0      		rcall .
 974 054c EDB7      		in r30,__SP_L__
 975 054e FEB7      		in r31,__SP_H__
 976 0550 3196      		adiw r30,1
 977 0552 ADB7      		in r26,__SP_L__
 978 0554 BEB7      		in r27,__SP_H__
 979 0556 1196      		adiw r26,1
 980 0558 0C93      		st X,r16
 981 055a 1197      		sbiw r26,1
 982 055c 1296      		adiw r26,2
 983 055e 1C93      		st X,r17
 984 0560 B282      		std Z+2,r11
 985 0562 E382      		std Z+3,r14
 986 0564 D582      		std Z+5,r13
 987 0566 C482      		std Z+4,r12
 988 0568 0E94 0000 		call sprintf
 989 056c EDB7      		in r30,__SP_L__
 990 056e FEB7      		in r31,__SP_H__
 991 0570 3696      		adiw r30,6
 992 0572 0FB6      		in __tmp_reg__,__SREG__
 993 0574 F894      		cli
 994 0576 FEBF      		out __SP_H__,r31
 995 0578 0FBE      		out __SREG__,__tmp_reg__
 996 057a EDBF      		out __SP_L__,r30
 997               	.L73:
 998               	.LM113:
 999 057c 6091 0000 		lds r22,dd
 1000 0580 7091 0000 		lds r23,(dd)+1
 1001 0584 8091 0000 		lds r24,fs
 1002 0588 9091 0000 		lds r25,(fs)+1
 1003 058c A801      		movw r20,r16
 1004 058e 20E0      		ldi r18,lo8(directory)
 1005 0590 30E0      		ldi r19,hi8(directory)
 1006 0592 0E94 0000 		call find_file_in_dir
 1007 0596 8823      		tst r24
 1008 0598 01F4      		brne .L74
 1009               	.LM114:
 1010 059a 8091 0000 		lds r24,dd
 1011 059e 9091 0000 		lds r25,(dd)+1
 1012 05a2 B801      		movw r22,r16
 1013 05a4 AE01      		movw r20,r28
 1014 05a6 4F5D      		subi r20,lo8(-(33))
 1015 05a8 5F4F      		sbci r21,hi8(-(33))
 1016 05aa 0E94 0000 		call fat_create_file
 1017 05ae 8823      		tst r24
 1018 05b0 01F4      		brne .L75
 1019               	.LM115:
 1020 05b2 00D0      		rcall .
 1021 05b4 80E0      		ldi r24,lo8(__c.2173)
 1022 05b6 90E0      		ldi r25,hi8(__c.2173)
 1023 05b8 ADB7      		in r26,__SP_L__
 1024 05ba BEB7      		in r27,__SP_H__
 1025 05bc 1296      		adiw r26,1+1
 1026 05be 9C93      		st X,r25
 1027 05c0 8E93      		st -X,r24
 1028 05c2 1197      		sbiw r26,1
 1029 05c4 0E94 0000 		call printf_P
 1030 05c8 0F90      		pop __tmp_reg__
 1031 05ca 0F90      		pop __tmp_reg__
 1032               	.L75:
 1033               	.LM116:
 1034 05cc 6091 0000 		lds r22,dd
 1035 05d0 7091 0000 		lds r23,(dd)+1
 1036 05d4 8091 0000 		lds r24,fs
 1037 05d8 9091 0000 		lds r25,(fs)+1
 1038 05dc AE01      		movw r20,r28
 1039 05de 4F5F      		subi r20,lo8(-(1))
 1040 05e0 5F4F      		sbci r21,hi8(-(1))
 1041 05e2 0E94 0000 		call open_file_in_dir
 1042               	/* epilogue start */
 1043               	.LM117:
 1044 05e6 CF5A      		subi r28,lo8(-(81))
 1045 05e8 DF4F      		sbci r29,hi8(-(81))
 1046 05ea 0FB6      		in __tmp_reg__,__SREG__
 1047 05ec F894      		cli
 1048 05ee DEBF      		out __SP_H__,r29
 1049 05f0 0FBE      		out __SREG__,__tmp_reg__
 1050 05f2 CDBF      		out __SP_L__,r28
 1051 05f4 CF91      		pop r28
 1052 05f6 DF91      		pop r29
 1053 05f8 1F91      		pop r17
 1054 05fa 0F91      		pop r16
 1055 05fc FF90      		pop r15
 1056 05fe EF90      		pop r14
 1057 0600 DF90      		pop r13
 1058 0602 CF90      		pop r12
 1059               	.LVL52:
 1060 0604 BF90      		pop r11
 1061 0606 0895      		ret
 1062               	.LFE9:
 1064               		.data
 1065               	.LC9:
 1066 006d 2530 3478 		.string	"%04x"
 1066      00
 1067               	.LC10:
 1068 0072 2C00      		.string	","
 1069               	.LC11:
 1070 0074 0A00      		.string	"\n"
 1071               	.LC12:
 1072 0076 583A 2530 		.string	"X:%04x\tY:%04x\tZ:%04x\r"
 1072      3478 0959 
 1072      3A25 3034 
 1072      7809 5A3A 
 1072      2530 3478 
 1073               	.LC13:
 1074 008c 0A3E 00   		.string	"\n>"
 1075               		.text
 1076               	.global	main
 1078               	main:
 1079               	.LFB3:
 1080               	.LM118:
 1081 0608 2F92      		push r2
 1082 060a 3F92      		push r3
 1083 060c 4F92      		push r4
 1084 060e 5F92      		push r5
 1085 0610 6F92      		push r6
 1086 0612 7F92      		push r7
 1087 0614 8F92      		push r8
 1088 0616 9F92      		push r9
 1089 0618 AF92      		push r10
 1090 061a BF92      		push r11
 1091 061c CF92      		push r12
 1092 061e DF92      		push r13
 1093 0620 EF92      		push r14
 1094 0622 FF92      		push r15
 1095 0624 0F93      		push r16
 1096 0626 1F93      		push r17
 1097 0628 DF93      		push r29
 1098 062a CF93      		push r28
 1099 062c CDB7      		in r28,__SP_L__
 1100 062e DEB7      		in r29,__SP_H__
 1101 0630 2797      		sbiw r28,7
 1102 0632 0FB6      		in __tmp_reg__,__SREG__
 1103 0634 F894      		cli
 1104 0636 DEBF      		out __SP_H__,r29
 1105 0638 0FBE      		out __SREG__,__tmp_reg__
 1106 063a CDBF      		out __SP_L__,r28
 1107               	/* prologue: function */
 1108               	/* frame size = 7 */
 1109               	.LM119:
 1110 063c 0E94 0000 		call ioinit
 1111               	.LM120:
 1112 0640 409A      		sbi 40-32,0
 1113               	.LM121:
 1114 0642 5F9A      		sbi 43-32,7
 1115               	.LM122:
 1116 0644 84E6      		ldi r24,lo8(100)
 1117 0646 90E0      		ldi r25,hi8(100)
 1118 0648 0E94 0000 		call delay_ms
 1119               	.LM123:
 1120 064c 5F98      		cbi 43-32,7
 1121               	.LM124:
 1122 064e 5E9A      		sbi 43-32,6
 1123               	.LM125:
 1124 0650 84E6      		ldi r24,lo8(100)
 1125 0652 90E0      		ldi r25,hi8(100)
 1126 0654 0E94 0000 		call delay_ms
 1127               	.LM126:
 1128 0658 5E98      		cbi 43-32,6
 1129               	.LM127:
 1130 065a 5D9A      		sbi 43-32,5
 1131               	.LM128:
 1132 065c 84E6      		ldi r24,lo8(100)
 1133 065e 90E0      		ldi r25,hi8(100)
 1134 0660 0E94 0000 		call delay_ms
 1135               	.LM129:
 1136 0664 5D98      		cbi 43-32,5
 1137               	.LM130:
 1138 0666 84E6      		ldi r24,lo8(100)
 1139 0668 90E0      		ldi r25,hi8(100)
 1140 066a 0E94 0000 		call delay_ms
 1141               	.LM131:
 1142 066e 459A      		sbi 40-32,5
 1143               	.LM132:
 1144 0670 84E6      		ldi r24,lo8(100)
 1145 0672 90E0      		ldi r25,hi8(100)
 1146 0674 0E94 0000 		call delay_ms
 1147               	.LM133:
 1148 0678 4598      		cbi 40-32,5
 1149               	.LM134:
 1150 067a 84E6      		ldi r24,lo8(100)
 1151 067c 90E0      		ldi r25,hi8(100)
 1152 067e 0E94 0000 		call delay_ms
 1153               	.LM135:
 1154 0682 449A      		sbi 40-32,4
 1155               	.LM136:
 1156 0684 84E6      		ldi r24,lo8(100)
 1157 0686 90E0      		ldi r25,hi8(100)
 1158 0688 0E94 0000 		call delay_ms
 1159               	.LM137:
 1160 068c 4498      		cbi 40-32,4
 1161               	.LM138:
 1162 068e 84E6      		ldi r24,lo8(100)
 1163 0690 90E0      		ldi r25,hi8(100)
 1164 0692 0E94 0000 		call delay_ms
 1165               	.LM139:
 1166 0696 299A      		sbi 37-32,1
 1167               	.LM140:
 1168 0698 84E6      		ldi r24,lo8(100)
 1169 069a 90E0      		ldi r25,hi8(100)
 1170 069c 0E94 0000 		call delay_ms
 1171               	.LM141:
 1172 06a0 2998      		cbi 37-32,1
 1173               	.LM142:
 1174 06a2 84E6      		ldi r24,lo8(100)
 1175 06a4 90E0      		ldi r25,hi8(100)
 1176 06a6 0E94 0000 		call delay_ms
 1177               	.LM143:
 1178 06aa 289A      		sbi 37-32,0
 1179               	.LM144:
 1180 06ac 84E6      		ldi r24,lo8(100)
 1181 06ae 90E0      		ldi r25,hi8(100)
 1182 06b0 0E94 0000 		call delay_ms
 1183               	.LM145:
 1184 06b4 2898      		cbi 37-32,0
 1185               	.LM146:
 1186 06b6 84E6      		ldi r24,lo8(100)
 1187 06b8 90E0      		ldi r25,hi8(100)
 1188 06ba 0E94 0000 		call delay_ms
 1189               	.LM147:
 1190 06be 0E94 0000 		call init_filesystem
 1191               	.LM148:
 1192 06c2 8823      		tst r24
 1193 06c4 01F0      		breq .+2
 1194 06c6 00C0      		rjmp .L78
 1195 06c8 8824      		clr r8
 1196               	.LVL53:
 1197               	.L94:
 1198               	.LM149:
 1199 06ca 0E94 0000 		call adxl345_defaults
 1200               	.LBB10:
 1201               	.LM150:
 1202 06ce 082D      		mov r16,r8
 1203 06d0 10E0      		ldi r17,lo8(0)
 1204 06d2 0F5F      		subi r16,lo8(-(1))
 1205 06d4 1F4F      		sbci r17,hi8(-(1))
 1206 06d6 000F      		lsl r16
 1207 06d8 111F      		rol r17
 1208 06da EE24      		clr r14
 1209 06dc FF24      		clr r15
 1210               	.LVL54:
 1211               	.L79:
 1212               	.LM151:
 1213 06de 5F9A      		sbi 43-32,7
 1214               	.LM152:
 1215 06e0 5E9A      		sbi 43-32,6
 1216               	.LM153:
 1217 06e2 5D9A      		sbi 43-32,5
 1218               	.LM154:
 1219 06e4 84E6      		ldi r24,lo8(100)
 1220 06e6 90E0      		ldi r25,hi8(100)
 1221 06e8 0E94 0000 		call delay_ms
 1222               	.LM155:
 1223 06ec 5F98      		cbi 43-32,7
 1224               	.LM156:
 1225 06ee 5E98      		cbi 43-32,6
 1226               	.LM157:
 1227 06f0 5D98      		cbi 43-32,5
 1228               	.LM158:
 1229 06f2 84E6      		ldi r24,lo8(100)
 1230 06f4 90E0      		ldi r25,hi8(100)
 1231 06f6 0E94 0000 		call delay_ms
 1232               	.LM159:
 1233 06fa 0894      		sec
 1234 06fc E11C      		adc r14,__zero_reg__
 1235 06fe F11C      		adc r15,__zero_reg__
 1236 0700 E016      		cp r14,r16
 1237 0702 F106      		cpc r15,r17
 1238 0704 04F0      		brlt .L79
 1239 0706 4424      		clr r4
 1240               	.LVL55:
 1241 0708 5524      		clr r5
 1242               	.LVL56:
 1243               	.LBE10:
 1244               	.LM160:
 1245 070a 50E0      		ldi r21,lo8(ascii_value)
 1246 070c 652E      		mov r6,r21
 1247 070e 50E0      		ldi r21,hi8(ascii_value)
 1248 0710 752E      		mov r7,r21
 1249 0712 40E0      		ldi r20,lo8(.LC9)
 1250 0714 242E      		mov r2,r20
 1251 0716 40E0      		ldi r20,hi8(.LC9)
 1252 0718 342E      		mov r3,r20
 1253               	.LVL57:
 1254               	.L104:
 1255               	.LM161:
 1256 071a 8EE2      		ldi r24,lo8(46)
 1257 071c 0E94 0000 		call adxl345_read
 1258               	.LM162:
 1259 0720 8C77      		andi r24,lo8(124)
 1260 0722 8F83      		std Y+7,r24
 1261               	.LVL58:
 1262               	.LM163:
 1263 0724 8FE2      		ldi r24,lo8(47)
 1264 0726 0E94 0000 		call adxl345_read
 1265               	.LM164:
 1266 072a 082F      		mov r16,r24
 1267 072c 10E0      		ldi r17,lo8(0)
 1268               	.LVL59:
 1269 072e 0095      		com r16
 1270 0730 1095      		com r17
 1271 0732 00C0      		rjmp .L103
 1272               	.L89:
 1273               	.LM165:
 1274 0734 4B99      		sbic 41-32,3
 1275 0736 00C0      		rjmp .L81
 1276               	.LM166:
 1277 0738 80E3      		ldi r24,lo8(48)
 1278 073a 0E94 0000 		call adxl345_read
 1279 073e 982E      		mov r9,r24
 1280               	.LM167:
 1281 0740 87FF      		sbrs r24,7
 1282 0742 00C0      		rjmp .L82
 1283               	.LVL60:
 1284               	.LM168:
 1285 0744 83E3      		ldi r24,lo8(51)
 1286               	.LVL61:
 1287 0746 0E94 0000 		call adxl345_read
 1288 074a 8093 0000 		sts high_byte,r24
 1289               	.LM169:
 1290 074e 82E3      		ldi r24,lo8(50)
 1291 0750 0E94 0000 		call adxl345_read
 1292 0754 8093 0000 		sts low_byte,r24
 1293               	.LM170:
 1294 0758 90E0      		ldi r25,lo8(0)
 1295 075a B090 0000 		lds r11,high_byte
 1296 075e AA24      		clr r10
 1297 0760 8A29      		or r24,r10
 1298 0762 9B29      		or r25,r11
 1299 0764 9093 0000 		sts (x_value)+1,r25
 1300 0768 8093 0000 		sts x_value,r24
 1301               	.LM171:
 1302 076c 85E3      		ldi r24,lo8(53)
 1303 076e 0E94 0000 		call adxl345_read
 1304 0772 8093 0000 		sts high_byte,r24
 1305               	.LM172:
 1306 0776 84E3      		ldi r24,lo8(52)
 1307 0778 0E94 0000 		call adxl345_read
 1308 077c 8093 0000 		sts low_byte,r24
 1309               	.LM173:
 1310 0780 90E0      		ldi r25,lo8(0)
 1311 0782 D090 0000 		lds r13,high_byte
 1312 0786 CC24      		clr r12
 1313 0788 8C29      		or r24,r12
 1314 078a 9D29      		or r25,r13
 1315 078c 9093 0000 		sts (y_value)+1,r25
 1316 0790 8093 0000 		sts y_value,r24
 1317               	.LM174:
 1318 0794 87E3      		ldi r24,lo8(55)
 1319 0796 0E94 0000 		call adxl345_read
 1320 079a 8093 0000 		sts high_byte,r24
 1321               	.LM175:
 1322 079e 86E3      		ldi r24,lo8(54)
 1323 07a0 0E94 0000 		call adxl345_read
 1324 07a4 8093 0000 		sts low_byte,r24
 1325               	.LM176:
 1326 07a8 90E0      		ldi r25,lo8(0)
 1327 07aa F090 0000 		lds r15,high_byte
 1328 07ae EE24      		clr r14
 1329               	.LVL62:
 1330 07b0 8E29      		or r24,r14
 1331 07b2 9F29      		or r25,r15
 1332 07b4 9093 0000 		sts (z_value)+1,r25
 1333 07b8 8093 0000 		sts z_value,r24
 1334               	.LM177:
 1335 07bc 00D0      		rcall .
 1336 07be 00D0      		rcall .
 1337 07c0 00D0      		rcall .
 1338 07c2 EDB7      		in r30,__SP_L__
 1339 07c4 FEB7      		in r31,__SP_H__
 1340 07c6 3196      		adiw r30,1
 1341 07c8 ADB7      		in r26,__SP_L__
 1342 07ca BEB7      		in r27,__SP_H__
 1343 07cc 1296      		adiw r26,1+1
 1344 07ce 7C92      		st X,r7
 1345 07d0 6E92      		st -X,r6
 1346 07d2 1197      		sbiw r26,1
 1347 07d4 3382      		std Z+3,r3
 1348 07d6 2282      		std Z+2,r2
 1349 07d8 8091 0000 		lds r24,x_value
 1350 07dc 9091 0000 		lds r25,(x_value)+1
 1351 07e0 9583      		std Z+5,r25
 1352 07e2 8483      		std Z+4,r24
 1353 07e4 0E94 0000 		call sprintf
 1354               	.LM178:
 1355 07e8 EDB7      		in r30,__SP_L__
 1356 07ea FEB7      		in r31,__SP_H__
 1357 07ec 3696      		adiw r30,6
 1358 07ee 0FB6      		in __tmp_reg__,__SREG__
 1359 07f0 F894      		cli
 1360 07f2 FEBF      		out __SP_H__,r31
 1361 07f4 0FBE      		out __SREG__,__tmp_reg__
 1362 07f6 EDBF      		out __SP_L__,r30
 1363 07f8 80E0      		ldi r24,lo8(data_buffer)
 1364 07fa 90E0      		ldi r25,hi8(data_buffer)
 1365 07fc B301      		movw r22,r6
 1366 07fe 0E94 0000 		call strcat
 1367               	.LM179:
 1368 0802 80E0      		ldi r24,lo8(data_buffer)
 1369 0804 90E0      		ldi r25,hi8(data_buffer)
 1370 0806 60E0      		ldi r22,lo8(.LC10)
 1371 0808 70E0      		ldi r23,hi8(.LC10)
 1372 080a 0E94 0000 		call strcat
 1373               	.LM180:
 1374 080e 00D0      		rcall .
 1375 0810 00D0      		rcall .
 1376 0812 00D0      		rcall .
 1377 0814 EDB7      		in r30,__SP_L__
 1378 0816 FEB7      		in r31,__SP_H__
 1379 0818 3196      		adiw r30,1
 1380 081a ADB7      		in r26,__SP_L__
 1381 081c BEB7      		in r27,__SP_H__
 1382 081e 1296      		adiw r26,1+1
 1383 0820 7C92      		st X,r7
 1384 0822 6E92      		st -X,r6
 1385 0824 1197      		sbiw r26,1
 1386 0826 3382      		std Z+3,r3
 1387 0828 2282      		std Z+2,r2
 1388 082a 8091 0000 		lds r24,y_value
 1389 082e 9091 0000 		lds r25,(y_value)+1
 1390 0832 9583      		std Z+5,r25
 1391 0834 8483      		std Z+4,r24
 1392 0836 0E94 0000 		call sprintf
 1393               	.LM181:
 1394 083a EDB7      		in r30,__SP_L__
 1395 083c FEB7      		in r31,__SP_H__
 1396 083e 3696      		adiw r30,6
 1397 0840 0FB6      		in __tmp_reg__,__SREG__
 1398 0842 F894      		cli
 1399 0844 FEBF      		out __SP_H__,r31
 1400 0846 0FBE      		out __SREG__,__tmp_reg__
 1401 0848 EDBF      		out __SP_L__,r30
 1402 084a 80E0      		ldi r24,lo8(data_buffer)
 1403 084c 90E0      		ldi r25,hi8(data_buffer)
 1404 084e B301      		movw r22,r6
 1405 0850 0E94 0000 		call strcat
 1406               	.LM182:
 1407 0854 80E0      		ldi r24,lo8(data_buffer)
 1408 0856 90E0      		ldi r25,hi8(data_buffer)
 1409 0858 60E0      		ldi r22,lo8(.LC10)
 1410 085a 70E0      		ldi r23,hi8(.LC10)
 1411 085c 0E94 0000 		call strcat
 1412               	.LM183:
 1413 0860 00D0      		rcall .
 1414 0862 00D0      		rcall .
 1415 0864 00D0      		rcall .
 1416 0866 EDB7      		in r30,__SP_L__
 1417 0868 FEB7      		in r31,__SP_H__
 1418 086a 3196      		adiw r30,1
 1419 086c ADB7      		in r26,__SP_L__
 1420 086e BEB7      		in r27,__SP_H__
 1421 0870 1296      		adiw r26,1+1
 1422 0872 7C92      		st X,r7
 1423 0874 6E92      		st -X,r6
 1424 0876 1197      		sbiw r26,1
 1425 0878 3382      		std Z+3,r3
 1426 087a 2282      		std Z+2,r2
 1427 087c 8091 0000 		lds r24,z_value
 1428 0880 9091 0000 		lds r25,(z_value)+1
 1429 0884 9583      		std Z+5,r25
 1430 0886 8483      		std Z+4,r24
 1431 0888 0E94 0000 		call sprintf
 1432               	.LM184:
 1433 088c EDB7      		in r30,__SP_L__
 1434 088e FEB7      		in r31,__SP_H__
 1435 0890 3696      		adiw r30,6
 1436 0892 0FB6      		in __tmp_reg__,__SREG__
 1437 0894 F894      		cli
 1438 0896 FEBF      		out __SP_H__,r31
 1439 0898 0FBE      		out __SREG__,__tmp_reg__
 1440 089a EDBF      		out __SP_L__,r30
 1441 089c 80E0      		ldi r24,lo8(data_buffer)
 1442 089e 90E0      		ldi r25,hi8(data_buffer)
 1443 08a0 B301      		movw r22,r6
 1444 08a2 0E94 0000 		call strcat
 1445               	.LM185:
 1446 08a6 80E0      		ldi r24,lo8(data_buffer)
 1447 08a8 90E0      		ldi r25,hi8(data_buffer)
 1448 08aa 60E0      		ldi r22,lo8(.LC11)
 1449 08ac 70E0      		ldi r23,hi8(.LC11)
 1450 08ae 0E94 0000 		call strcat
 1451               	.LM186:
 1452 08b2 8DB7      		in r24,__SP_L__
 1453 08b4 9EB7      		in r25,__SP_H__
 1454 08b6 0897      		sbiw r24,8
 1455 08b8 0FB6      		in __tmp_reg__,__SREG__
 1456 08ba F894      		cli
 1457 08bc 9EBF      		out __SP_H__,r25
 1458 08be 0FBE      		out __SREG__,__tmp_reg__
 1459 08c0 8DBF      		out __SP_L__,r24
 1460 08c2 EDB7      		in r30,__SP_L__
 1461 08c4 FEB7      		in r31,__SP_H__
 1462 08c6 3196      		adiw r30,1
 1463 08c8 80E0      		ldi r24,lo8(.LC12)
 1464 08ca 90E0      		ldi r25,hi8(.LC12)
 1465 08cc ADB7      		in r26,__SP_L__
 1466 08ce BEB7      		in r27,__SP_H__
 1467 08d0 1296      		adiw r26,1+1
 1468 08d2 9C93      		st X,r25
 1469 08d4 8E93      		st -X,r24
 1470 08d6 1197      		sbiw r26,1
 1471 08d8 8091 0000 		lds r24,x_value
 1472 08dc 9091 0000 		lds r25,(x_value)+1
 1473 08e0 9383      		std Z+3,r25
 1474 08e2 8283      		std Z+2,r24
 1475 08e4 8091 0000 		lds r24,y_value
 1476 08e8 9091 0000 		lds r25,(y_value)+1
 1477 08ec 9583      		std Z+5,r25
 1478 08ee 8483      		std Z+4,r24
 1479 08f0 8091 0000 		lds r24,z_value
 1480 08f4 9091 0000 		lds r25,(z_value)+1
 1481 08f8 9783      		std Z+7,r25
 1482 08fa 8683      		std Z+6,r24
 1483 08fc 0E94 0000 		call printf
 1484 0900 ADB7      		in r26,__SP_L__
 1485 0902 BEB7      		in r27,__SP_H__
 1486 0904 1896      		adiw r26,8
 1487 0906 0FB6      		in __tmp_reg__,__SREG__
 1488 0908 F894      		cli
 1489 090a BEBF      		out __SP_H__,r27
 1490 090c 0FBE      		out __SREG__,__tmp_reg__
 1491 090e ADBF      		out __SP_L__,r26
 1492               	.LVL63:
 1493               	.L82:
 1494               	.LM187:
 1495 0910 BF81      		ldd r27,Y+7
 1496 0912 9B22      		and r9,r27
 1497 0914 892D      		mov r24,r9
 1498 0916 90E0      		ldi r25,lo8(0)
 1499 0918 8023      		and r24,r16
 1500 091a 9123      		and r25,r17
 1501 091c 892B      		or r24,r25
 1502 091e 01F0      		breq .L81
 1503 0920 34E6      		ldi r19,lo8(100)
 1504 0922 432E      		mov r4,r19
 1505               	.L81:
 1506               	.LM188:
 1507 0924 4A99      		sbic 41-32,2
 1508 0926 00C0      		rjmp .L83
 1509 0928 24E6      		ldi r18,lo8(100)
 1510 092a 522E      		mov r5,r18
 1511               	.L83:
 1512               	.LM189:
 1513 092c 4420      		tst r4
 1514 092e 01F0      		breq .L84
 1515               	.LM190:
 1516 0930 5E9A      		sbi 43-32,6
 1517               	.LM191:
 1518 0932 4A94      		dec r4
 1519 0934 00C0      		rjmp .L85
 1520               	.L84:
 1521               	.LM192:
 1522 0936 5E98      		cbi 43-32,6
 1523               	.L85:
 1524               	.LM193:
 1525 0938 5520      		tst r5
 1526 093a 01F0      		breq .L86
 1527               	.LM194:
 1528 093c 5D9A      		sbi 43-32,5
 1529               	.LM195:
 1530 093e 5A94      		dec r5
 1531 0940 00C0      		rjmp .L87
 1532               	.L86:
 1533               	.LM196:
 1534 0942 5D98      		cbi 43-32,5
 1535               	.L87:
 1536               	.LM197:
 1537 0944 E0E0      		ldi r30,lo8(data_buffer)
 1538 0946 F0E0      		ldi r31,hi8(data_buffer)
 1539 0948 0190      		ld __tmp_reg__,Z+
 1540 094a 0020      		tst __tmp_reg__
 1541 094c 01F4      		brne .-6
 1542 094e 3197      		sbiw r30,1
 1543 0950 E050      		subi r30,lo8(data_buffer)
 1544 0952 F040      		sbci r31,hi8(data_buffer)
 1545 0954 EF5E      		subi r30,lo8(495)
 1546 0956 F140      		sbci r31,hi8(495)
 1547 0958 00F0      		brlo .L103
 1548               	.LM198:
 1549 095a 5F9A      		sbi 43-32,7
 1550               	.LM199:
 1551 095c 8820      		tst r8
 1552 095e 01F0      		breq .L88
 1553 0960 80E0      		ldi r24,lo8(log_file_handle)
 1554 0962 90E0      		ldi r25,hi8(log_file_handle)
 1555 0964 60E0      		ldi r22,lo8(data_buffer)
 1556 0966 70E0      		ldi r23,hi8(data_buffer)
 1557 0968 0E94 0000 		call save_data
 1558               	.L88:
 1559               	.LM200:
 1560 096c 1092 0000 		sts data_buffer,__zero_reg__
 1561               	.LM201:
 1562 0970 5F98      		cbi 43-32,7
 1563               	.L103:
 1564               	.LM202:
 1565 0972 8091 C000 		lds r24,192
 1566 0976 87FF      		sbrs r24,7
 1567 0978 00C0      		rjmp .L89
 1568               	.LM203:
 1569 097a 8820      		tst r8
 1570 097c 01F0      		breq .L90
 1571 097e 8091 0000 		lds r24,log_file_handle
 1572 0982 9091 0000 		lds r25,(log_file_handle)+1
 1573 0986 0E94 0000 		call fat_close_file
 1574               	.L90:
 1575               	.LM204:
 1576 098a 1091 C600 		lds r17,198
 1577               	.LVL64:
 1578               	.LM205:
 1579 098e 82E3      		ldi r24,lo8(50)
 1580 0990 90E0      		ldi r25,hi8(50)
 1581 0992 0E94 0000 		call delay_ms
 1582               	.LM206:
 1583 0996 8DE2      		ldi r24,lo8(45)
 1584 0998 67EF      		ldi r22,lo8(-9)
 1585 099a 0E94 0000 		call adxl345_write
 1586 099e 00C0      		rjmp .L91
 1587               	.L98:
 1588               	.LM207:
 1589 09a0 5E98      		cbi 43-32,6
 1590               	.LM208:
 1591 09a2 5D98      		cbi 43-32,5
 1592               	.LM209:
 1593 09a4 00D0      		rcall .
 1594 09a6 E0E0      		ldi r30,lo8(.LC13)
 1595 09a8 F0E0      		ldi r31,hi8(.LC13)
 1596 09aa ADB7      		in r26,__SP_L__
 1597 09ac BEB7      		in r27,__SP_H__
 1598 09ae 1296      		adiw r26,1+1
 1599 09b0 FC93      		st X,r31
 1600 09b2 EE93      		st -X,r30
 1601 09b4 1197      		sbiw r26,1
 1602 09b6 0E94 0000 		call printf
 1603               	.LM210:
 1604 09ba 0F90      		pop __tmp_reg__
 1605 09bc 0F90      		pop __tmp_reg__
 1606 09be CE01      		movw r24,r28
 1607 09c0 0196      		adiw r24,1
 1608 09c2 0E94 0000 		call get_command
 1609 09c6 8823      		tst r24
 1610 09c8 01F0      		breq .L98
 1611 09ca CE01      		movw r24,r28
 1612 09cc 0196      		adiw r24,1
 1613 09ce 0E94 0000 		call execute_command
 1614 09d2 182F      		mov r17,r24
 1615               	.L91:
 1616               	.LM211:
 1617 09d4 1230      		cpi r17,lo8(2)
 1618 09d6 01F4      		brne .L98
 1619               	.LM212:
 1620 09d8 8AE0      		ldi r24,lo8(10)
 1621 09da 90E0      		ldi r25,hi8(10)
 1622 09dc 0E94 0000 		call putchar
 1623               	.LM213:
 1624 09e0 8DE2      		ldi r24,lo8(45)
 1625 09e2 68E0      		ldi r22,lo8(8)
 1626 09e4 0E94 0000 		call adxl345_write
 1627               	.LM214:
 1628 09e8 8820      		tst r8
 1629 09ea 01F4      		brne .+2
 1630 09ec 00C0      		rjmp .L104
 1631 09ee 0E94 0000 		call create_log_file
 1632 09f2 9093 0000 		sts (log_file_handle)+1,r25
 1633 09f6 8093 0000 		sts log_file_handle,r24
 1634 09fa 00C0      		rjmp .L104
 1635               	.LVL65:
 1636               	.L78:
 1637               	.LM215:
 1638 09fc 0E94 0000 		call create_log_file
 1639 0a00 9093 0000 		sts (log_file_handle)+1,r25
 1640 0a04 8093 0000 		sts log_file_handle,r24
 1641 0a08 8824      		clr r8
 1642 0a0a 8394      		inc r8
 1643               	.LVL66:
 1644 0a0c 00C0      		rjmp .L94
 1645               	.LFE3:
 1647               	.global	low_byte
 1648               	.global	low_byte
 1649               		.section .bss
 1652               	low_byte:
 1653 0000 00        		.skip 1,0
 1654               	.global	high_byte
 1655               	.global	high_byte
 1658               	high_byte:
 1659 0001 00        		.skip 1,0
 1660               	.global	x_value
 1661               	.global	x_value
 1664               	x_value:
 1665 0002 0000      		.skip 2,0
 1666               	.global	y_value
 1667               	.global	y_value
 1670               	y_value:
 1671 0004 0000      		.skip 2,0
 1672               	.global	z_value
 1673               	.global	z_value
 1676               	z_value:
 1677 0006 0000      		.skip 2,0
 1678               		.section	.progmem.data,"a",@progbits
 1681               	__c.2173:
 1682 0000 4E6F 2046 		.string	"No File Created!\n\r"
 1682      696C 6520 
 1682      4372 6561 
 1682      7465 6421 
 1682      0A0D 00
 1683               		.data
 1686               	mystdout:
 1687 008f 0000 00   		.skip 3,0
 1688 0092 02        		.byte	2
 1689 0093 0000 0000 		.skip 4,0
 1690 0097 0000      		.word	gs(uart_putchar)
 1691 0099 0000      		.word	0
 1692 009b 0000      		.word	0
 1693               		.comm dd,2,1
 1694               		.comm directory,49,1
 1695               		.comm fs,2,1
 1696               		.comm partition,2,1
 1697               		.comm log_file_handle,2,1
 1698               		.comm ascii_value,6,1
 1699               		.comm data_buffer,512,1
 1820               	.Letext0:
DEFINED SYMBOLS
                            *ABS*:00000000 main.c
C:\DOCUME~1\Ryan\LOCALS~1\Temp/cc4epYXC.s:2      *ABS*:0000003f __SREG__
C:\DOCUME~1\Ryan\LOCALS~1\Temp/cc4epYXC.s:3      *ABS*:0000003e __SP_H__
C:\DOCUME~1\Ryan\LOCALS~1\Temp/cc4epYXC.s:4      *ABS*:0000003d __SP_L__
C:\DOCUME~1\Ryan\LOCALS~1\Temp/cc4epYXC.s:5      *ABS*:00000034 __CCP__
C:\DOCUME~1\Ryan\LOCALS~1\Temp/cc4epYXC.s:6      *ABS*:00000000 __tmp_reg__
C:\DOCUME~1\Ryan\LOCALS~1\Temp/cc4epYXC.s:7      *ABS*:00000001 __zero_reg__
C:\DOCUME~1\Ryan\LOCALS~1\Temp/cc4epYXC.s:17     .text:00000000 uart_putchar
C:\DOCUME~1\Ryan\LOCALS~1\Temp/cc4epYXC.s:51     .text:00000022 uart_getchar
C:\DOCUME~1\Ryan\LOCALS~1\Temp/cc4epYXC.s:70     .text:00000030 delay_us
C:\DOCUME~1\Ryan\LOCALS~1\Temp/cc4epYXC.s:117    .text:0000005e delay_ms
C:\DOCUME~1\Ryan\LOCALS~1\Temp/cc4epYXC.s:149    .text:0000007a get_command
C:\DOCUME~1\Ryan\LOCALS~1\Temp/cc4epYXC.s:262    .text:000000e2 execute_command
C:\DOCUME~1\Ryan\LOCALS~1\Temp/cc4epYXC.s:609    .text:00000328 init_filesystem
                            *COM*:00000002 partition
                            *COM*:00000002 fs
                            *COM*:00000031 directory
                            *COM*:00000002 dd
C:\DOCUME~1\Ryan\LOCALS~1\Temp/cc4epYXC.s:693    .text:000003c6 save_data
C:\DOCUME~1\Ryan\LOCALS~1\Temp/cc4epYXC.s:723    .text:000003e6 ioinit
C:\DOCUME~1\Ryan\LOCALS~1\Temp/cc4epYXC.s:1686   .data:0000008f mystdout
C:\DOCUME~1\Ryan\LOCALS~1\Temp/cc4epYXC.s:780    .text:00000430 find_file_in_dir
C:\DOCUME~1\Ryan\LOCALS~1\Temp/cc4epYXC.s:836    .text:00000474 open_file_in_dir
C:\DOCUME~1\Ryan\LOCALS~1\Temp/cc4epYXC.s:902    .text:000004d0 create_log_file
C:\DOCUME~1\Ryan\LOCALS~1\Temp/cc4epYXC.s:1681   .progmem.data:00000000 __c.2173
C:\DOCUME~1\Ryan\LOCALS~1\Temp/cc4epYXC.s:1078   .text:00000608 main
                            *COM*:00000006 ascii_value
C:\DOCUME~1\Ryan\LOCALS~1\Temp/cc4epYXC.s:1658   .bss:00000001 high_byte
C:\DOCUME~1\Ryan\LOCALS~1\Temp/cc4epYXC.s:1652   .bss:00000000 low_byte
C:\DOCUME~1\Ryan\LOCALS~1\Temp/cc4epYXC.s:1664   .bss:00000002 x_value
C:\DOCUME~1\Ryan\LOCALS~1\Temp/cc4epYXC.s:1670   .bss:00000004 y_value
C:\DOCUME~1\Ryan\LOCALS~1\Temp/cc4epYXC.s:1676   .bss:00000006 z_value
                            *COM*:00000200 data_buffer
                            *COM*:00000002 log_file_handle

UNDEFINED SYMBOLS
putchar
sprintf
strtol
adxl345_read
adxl345_write
printf
sd_raw_init
sd_raw_read
sd_raw_read_interval
sd_raw_write
sd_raw_write_interval
partition_open
fat_open
fat_get_dir_entry_of_path
fat_open_dir
fat_write_file
sd_raw_sync
adxl345_hw_setup
__iob
strcmp
fat_reset_dir
fat_read_dir
fat_open_file
fat_create_file
printf_P
adxl345_defaults
strcat
fat_close_file
__do_copy_data
__do_clear_bss
